	.section .text
.LNDBG_TX:
# mark_description "Intel(R) C++ Intel(R) 64 Compiler for applications running on Intel(R) 64, Version 16.0.4.258 Build 20160811";
# mark_description "";
# mark_description "-g -O3 -xHOST -std=c++11 -w3 -diag-disable:remark -S -o force.s";
	.file "force.cpp"
	.text
..TXTST0:
.L_2__routine_start_main_0:
# -- Begin  main
	.text
# mark_begin;
       .align    16,0x90
	.globl main
# --- main()
main:
..B1.1:                         # Preds ..B1.0
	.cfi_startproc
	.cfi_personality 0x3,__gxx_personality_v0
	.cfi_lsda 0xb, main$$LSDA
..___tag_value_main.66:
..L67:
                                                         #1240.12
..LN0:
	.file   1 "force.cpp"
	.loc    1  1240  is_stmt 1
        pushq     %rbp                                          #1240.12
	.cfi_def_cfa_offset 16
..LN1:
        movq      %rsp, %rbp                                    #1240.12
	.cfi_def_cfa 6, 16
	.cfi_offset 6, -16
..LN2:
        andq      $-128, %rsp                                   #1240.12
..LN3:
        pushq     %r12                                          #1240.12
..LN4:
        pushq     %r13                                          #1240.12
..LN5:
        pushq     %r14                                          #1240.12
..LN6:
        pushq     %r15                                          #1240.12
..LN7:
        pushq     %rbx                                          #1240.12
..LN8:
        subq      $1624, %rsp                                   #1240.12
..LN9:
        movl      $10330110, %esi                               #1240.12
..LN10:
        movl      $3, %edi                                      #1240.12
..LN11:
        call      __intel_new_feature_proc_init                 #1240.12
	.cfi_escape 0x10, 0x03, 0x0e, 0x38, 0x1c, 0x0d, 0x80, 0xff, 0xff, 0xff, 0x1a, 0x0d, 0xd8, 0xff, 0xff, 0xff, 0x22
	.cfi_escape 0x10, 0x0c, 0x0e, 0x38, 0x1c, 0x0d, 0x80, 0xff, 0xff, 0xff, 0x1a, 0x0d, 0xf8, 0xff, 0xff, 0xff, 0x22
	.cfi_escape 0x10, 0x0d, 0x0e, 0x38, 0x1c, 0x0d, 0x80, 0xff, 0xff, 0xff, 0x1a, 0x0d, 0xf0, 0xff, 0xff, 0xff, 0x22
	.cfi_escape 0x10, 0x0e, 0x0e, 0x38, 0x1c, 0x0d, 0x80, 0xff, 0xff, 0xff, 0x1a, 0x0d, 0xe8, 0xff, 0xff, 0xff, 0x22
	.cfi_escape 0x10, 0x0f, 0x0e, 0x38, 0x1c, 0x0d, 0x80, 0xff, 0xff, 0xff, 0x1a, 0x0d, 0xe0, 0xff, 0xff, 0xff, 0x22
..LN12:
                                # LOE
..B1.440:                       # Preds ..B1.1
..LN13:
        vstmxcsr  (%rsp)                                        #1240.12
..LN14:
	.loc    1  160  prologue_end  is_stmt 1
        xorl      %ebx, %ebx                                    #160.15
..LN15:
	.loc    1  1240  is_stmt 1
        orl       $32832, (%rsp)                                #1240.12
..LN16:
        vldmxcsr  (%rsp)                                        #1240.12
..LN17:
	.loc    1  157  is_stmt 1
        vmovsd    L(%rip), %xmm0                                #157.29
..LN18:
	.loc    1  155  is_stmt 1
        vmovsd    .L_2il0floatpacket.33(%rip), %xmm1            #155.26
..LN19:
	.loc    1  157  is_stmt 1
        vdivsd    %xmm1, %xmm0, %xmm2                           #157.33
..LN20:
        vcvttsd2si %xmm2, %r12d                                 #157.33
..LN21:
	.loc    1  160  is_stmt 1
        testl     %r12d, %r12d                                  #160.25
..LN22:
        jle       ..B1.13       # Prob 10%                      #160.25
..LN23:
                                # LOE ebx r12d xmm1
..B1.2:                         # Preds ..B1.440
..LN24:
	.loc    1  156  is_stmt 1
        vmovsd    .L_2il0floatpacket.34(%rip), %xmm0            #156.25
..LN25:
                                # LOE ebx r12d xmm0 xmm1
..B1.3:                         # Preds ..B1.11 ..B1.2
..L77:          # optimization report
                # %s was not vectorized: vector dependence prevents vectorization%s
                # VECTOR TRIP COUNT IS ESTIMATED CONSTANT
..LN26:
	.loc    1  165  is_stmt 1
        vxorpd    %xmm2, %xmm2, %xmm2                           #165.20
..LN27:
        vcvtsi2sd %ebx, %xmm2, %xmm2                            #165.20
..LN28:
        vmulsd    %xmm2, %xmm1, %xmm3                           #165.25
..LN29:
	.loc    1  161  is_stmt 1
        xorl      %r13d, %r13d                                  #161.17
..LN30:
	.loc    1  167  is_stmt 1
        vmovsd    %xmm3, (%rsp)                                 #167.42
..LN31:
        vaddsd    %xmm3, %xmm0, %xmm2                           #167.42
..LN32:
        vmovsd    %xmm2, 8(%rsp)                                #167.42
..LN33:
                                # LOE ebx r12d r13d xmm0 xmm1
..B1.4:                         # Preds ..B1.10 ..B1.3
..L78:          # optimization report
                # %s was not vectorized: vector dependence prevents vectorization%s
                # VECTOR TRIP COUNT IS ESTIMATED CONSTANT
..LN34:
	.loc    1  164  is_stmt 1
        vxorpd    %xmm2, %xmm2, %xmm2                           #164.20
..LN35:
        vcvtsi2sd %r13d, %xmm2, %xmm2                           #164.20
..LN36:
        vmulsd    %xmm2, %xmm1, %xmm3                           #164.25
..LN37:
	.loc    1  162  is_stmt 1
        xorl      %r14d, %r14d                                  #162.19
..LN38:
	.loc    1  167  is_stmt 1
        vmovsd    %xmm3, 16(%rsp)                               #167.34
..LN39:
        vaddsd    %xmm3, %xmm0, %xmm2                           #167.34
..LN40:
        vmovsd    %xmm2, 24(%rsp)                               #167.34
..LN41:
                                # LOE ebx r12d r13d r14d
..B1.5:                         # Preds ..B1.9 ..B1.4
..L79:          # optimization report
                # %s was not vectorized: vector dependence prevents vectorization%s
                # VECTOR TRIP COUNT IS ESTIMATED CONSTANT
..LN42:
	.loc    1  163  is_stmt 1
        vxorpd    %xmm2, %xmm2, %xmm2                           #163.20
..LN43:
        vcvtsi2sd %r14d, %xmm2, %xmm2                           #163.20
..LN44:
        vmulsd    .L_2il0floatpacket.33(%rip), %xmm2, %xmm0     #163.25
..LN45:
        vmovsd    %xmm0, 40(%rsp)                               #163.25
..LN46:
	.loc    1  166  is_stmt 1
        vmovsd    16(%rsp), %xmm1                               #166.9
..LN47:
        vmovsd    (%rsp), %xmm2                                 #166.9
..___tag_value_main.80:
..LN48:
#       add_particle(double, double, double)
        call      add_particle(double, double, double)                           #166.9
..___tag_value_main.81:
..LN49:
                                # LOE ebx r12d r13d r14d
..B1.6:                         # Preds ..B1.5
..LN50:
	.loc    1  167  is_stmt 1
        vmovsd    40(%rsp), %xmm0                               #167.9
..LN51:
        vmovsd    24(%rsp), %xmm1                               #167.9
..LN52:
        vmovsd    8(%rsp), %xmm2                                #167.9
..___tag_value_main.82:
..LN53:
#       add_particle(double, double, double)
        call      add_particle(double, double, double)                           #167.9
..___tag_value_main.83:
..LN54:
                                # LOE ebx r12d r13d r14d
..B1.7:                         # Preds ..B1.6
..LN55:
	.loc    1  168  is_stmt 1
        vmovsd    40(%rsp), %xmm2                               #168.26
..LN56:
        vaddsd    .L_2il0floatpacket.34(%rip), %xmm2, %xmm0     #168.26
..LN57:
        vmovsd    %xmm0, 32(%rsp)                               #168.26
..LN58:
        vmovsd    16(%rsp), %xmm1                               #168.9
..LN59:
        vmovsd    8(%rsp), %xmm2                                #168.9
..___tag_value_main.84:
..LN60:
#       add_particle(double, double, double)
        call      add_particle(double, double, double)                           #168.9
..___tag_value_main.85:
..LN61:
                                # LOE ebx r12d r13d r14d
..B1.8:                         # Preds ..B1.7
..LN62:
	.loc    1  169  is_stmt 1
        vmovsd    32(%rsp), %xmm0                               #169.9
..LN63:
        vmovsd    24(%rsp), %xmm1                               #169.9
..LN64:
        vmovsd    (%rsp), %xmm2                                 #169.9
..___tag_value_main.86:
..LN65:
#       add_particle(double, double, double)
        call      add_particle(double, double, double)                           #169.9
..___tag_value_main.87:
..LN66:
                                # LOE ebx r12d r13d r14d
..B1.9:                         # Preds ..B1.8
..LN67:
	.loc    1  162  is_stmt 1
        incl      %r14d                                         #162.33
..LN68:
        cmpl      %r12d, %r14d                                  #162.29
..LN69:
        jl        ..B1.5        # Prob 82%                      #162.29
..LN70:
                                # LOE ebx r12d r13d r14d
..B1.10:                        # Preds ..B1.9
..LN71:
	.loc    1  161  is_stmt 1
        incl      %r13d                                         #161.31
..LN72:
        vmovsd    .L_2il0floatpacket.34(%rip), %xmm0            #
..LN73:
        vmovsd    .L_2il0floatpacket.33(%rip), %xmm1            #
..LN74:
        cmpl      %r12d, %r13d                                  #161.27
..LN75:
        jl        ..B1.4        # Prob 82%                      #161.27
..LN76:
                                # LOE ebx r12d r13d xmm0 xmm1
..B1.11:                        # Preds ..B1.10
..LN77:
	.loc    1  160  is_stmt 1
        incl      %ebx                                          #160.29
..LN78:
        cmpl      %r12d, %ebx                                   #160.25
..LN79:
        jl        ..B1.3        # Prob 82%                      #160.25
..LN80:
                                # LOE ebx r12d xmm0 xmm1
..B1.13:                        # Preds ..B1.11 ..B1.440
..LN81:
	.loc    1  173  is_stmt 1
        movl      particle_number(%rip), %eax                   #173.23
..LN82:
        xorl      %edx, %edx                                    #173.3
..LN83:
        testl     %eax, %eax                                    #173.23
..LN84:
        jle       ..B1.17       # Prob 10%                      #173.23
..LN85:
                                # LOE rdx eax
..B1.14:                        # Preds ..B1.13
..LN86:
        cltq                                                    #173.3
..LN87:
	.loc    1  174  is_stmt 1
        xorl      %ebx, %ebx                                    #174.15
..LN88:
        vxorpd    %xmm0, %xmm0, %xmm0                           #174.15
..LN89:
                                # LOE rax rdx rbx xmm0
..B1.15:                        # Preds ..B1.15 ..B1.14
..L89:          # optimization report
                # LOOP WAS MATERIALIZED
                # LOOP WAS UNROLLED BY 1
                # LOOP WAS VECTORIZED
                # VECTORIZATION SPEEDUP COEFFECIENT 1.500000
                # LOOP HAS ONE VECTOR ITERATION
                # VECTOR LENGTH 2
                # MAIN VECTOR TYPE: 64-bits floating point
..L88:          # optimization report
                # %s was not vectorized: inner loop was already vectorized
..LN90:
        movq      %rdx, %rcx                                    #174.5
..LN91:
        shlq      $5, %rcx                                      #174.5
..LN92:
	.loc    1  173  is_stmt 1
        incq      %rdx                                          #173.3
..LN93:
	.loc    1  174  is_stmt 1
        vmovupd   %xmm0, p(%rcx)                                #174.5
..LN94:
        movq      %rbx, 16+p(%rcx)                              #174.5
..LN95:
	.loc    1  173  is_stmt 1
        cmpq      %rax, %rdx                                    #173.3
..LN96:
        jb        ..B1.15       # Prob 99%                      #173.3
..LN97:
                                # LOE rax rdx rbx xmm0
..B1.17:                        # Preds ..B1.15 ..B1.13
..LN98:
	.file   2 "/usr/include/sys/stat.h"
	.loc    2  455  is_stmt 1
        movl      $1, %edi                                      #455.10
..LN99:
        movl      $.L_2__STRING.2, %esi                         #455.10
..LN100:
        lea       1040(%rsp), %rdx                              #455.10
..LN101:
#       __xstat(int, const char *, stat *)
        call      __xstat                                       #455.10
..LN102:
                                # LOE eax
..B1.18:                        # Preds ..B1.17
..LN103:
	.loc    1  1244  is_stmt 1
        testl     %eax, %eax                                    #1244.14
..LN104:
        jne       ..B1.48       # Prob 50%                      #1244.14
..LN105:
                                # LOE
..B1.19:                        # Preds ..B1.18
..LN106:
	.loc    1  1245  is_stmt 1
        movl      std::cerr, %edi                              #1245.15
..LN107:
        movl      $.L_2__STRING.4, %esi                         #1245.15
..___tag_value_main.90:
..LN108:
#       std::operator<<<std::char_traits<char>>(std::basic_ostream<char, std::char_traits<char>> &, const char *)
        call      std::basic_ostream<char, std::char_traits<char> >& std::operator<< <std::char_traits<char> >(std::basic_ostream<char, std::char_traits<char> >&, char const*) #1245.15
..___tag_value_main.91:
..LN109:
                                # LOE rax
..B1.20:                        # Preds ..B1.19
..LN110:
        movq      %rax, %rdi                                    #1245.52
..LN111:
        movl      std::basic_ostream<char, std::char_traits<char> >& std::endl<char, std::char_traits<char> >(std::basic_ostream<char, std::char_traits<char> >&), %esi #1245.52
..___tag_value_main.92:
..LN112:
#       std::basic_ostream<char, std::char_traits<char>>::operator<<(std::basic_ostream<char, std::char_traits<char>> *, std::basic_ostream<char, std::char_traits<char>>::__ostream_type &(*)(std::basic_ostream<char, std::char_traits<char>>::__ostream_type &))
        call      std::basic_ostream<char, std::char_traits<char> >::operator<<(std::basic_ostream<char, std::char_traits<char> >& (*)(std::basic_ostream<char, std::char_traits<char> >&))                              #1245.52
..___tag_value_main.93:
..LN113:
                                # LOE
..B1.21:                        # Preds ..B1.20
..LN114:
	.file   3 "/home/app/gcc/4.8.5/include/c++/4.8.5/fstream"
	.loc    3  469  is_stmt 1
        movq      VTT for std::basic_ifstream<char, std::char_traits<char> >(%rip), %r15 #469.7
..LN115:
	.file   4 "/home/app/gcc/4.8.5/include/c++/4.8.5/bits/basic_ios.h"
	.loc    4  454  is_stmt 1
        lea       264(%rsp), %rdi                               #454.7
..LN116:
	.loc    1  1212  is_stmt 1
        movq      %r15, 8(%rsp)                                 #1212.17
..LN117:
	.loc    4  454  is_stmt 1
#       std::ios_base::ios_base(std::ios_base *const)
        call      std::ios_base::ios_base()                            #454.7
..LN118:
                                # LOE r15
..B1.22:                        # Preds ..B1.21
..LN119:
        movl      vtable for std::basic_ios<char, std::char_traits<char> >+16, %r14d #454.7
..LN120:
	.loc    1  1212  is_stmt 1
        xorl      %eax, %eax                                    #1212.17
..LN121:
        movq      %r14, 264(%rsp)                               #1212.17
..LN122:
        movq      %rax, 480(%rsp)                               #1212.17
..LN123:
        movb      $0, 488(%rsp)                                 #1212.17
..LN124:
        movb      $0, 489(%rsp)                                 #1212.17
..LN125:
        movq      %rax, 496(%rsp)                               #1212.17
..LN126:
        movq      %rax, 504(%rsp)                               #1212.17
..LN127:
        movq      %rax, 512(%rsp)                               #1212.17
..LN128:
        movq      %rax, 520(%rsp)                               #1212.17
..LN129:
                                # LOE r14 r15
..B1.24:                        # Preds ..B1.22
..LN130:
	.file   5 "/home/app/gcc/4.8.5/include/c++/4.8.5/istream"
	.loc    5  606  is_stmt 1
        movq      8+VTT for std::basic_ifstream<char, std::char_traits<char> >(%rip), %r12 #606.7
..LN131:
	.loc    5  608  is_stmt 1
        xorl      %esi, %esi                                    #608.15
..LN132:
	.loc    5  606  is_stmt 1
        movq      16+VTT for std::basic_ifstream<char, std::char_traits<char> >(%rip), %r13 #606.7
..LN133:
	.loc    1  1212  is_stmt 1
        movq      %r12, 8(%rsp)                                 #1212.17
..LN134:
	.loc    5  606  is_stmt 1
        movq      -24(%r12), %rax                               #606.7
..LN135:
        movq      %r13, 8(%rsp,%rax)                            #606.7
..LN136:
	.loc    5  608  is_stmt 1
        movq      8(%rsp), %rdx                                 #608.15
..LN137:
	.loc    1  1212  is_stmt 1
        movq      $0, 16(%rsp)                                  #1212.17
..LN138:
	.loc    5  608  is_stmt 1
        movq      -24(%rdx), %rcx                               #608.15
..LN139:
        lea       8(%rsp,%rcx), %rdi                            #608.15
..___tag_value_main.94:
..LN140:
#       std::basic_ios<char, std::char_traits<char>>::init(std::basic_ios<char, std::char_traits<char>> *, std::basic_streambuf<char, std::char_traits<char>> *)
        call      std::basic_ios<char, std::char_traits<char> >::init(std::basic_streambuf<char, std::char_traits<char> >*) #608.15
..___tag_value_main.95:
..LN141:
                                # LOE r12 r13 r14 r15
..B1.25:                        # Preds ..B1.24
..LN142:
	.loc    3  467  is_stmt 1
        movq      -24(%r15), %rax                               #467.7
..LN143:
        lea       24(%rsp), %rdi                                #467.7
..LN144:
        movq      24+VTT for std::basic_ifstream<char, std::char_traits<char> >(%rip), %rbx #467.7
..LN145:
	.loc    1  1212  is_stmt 1
        movq      %r15, -16(%rdi)                               #1212.17
..LN146:
	.loc    3  467  is_stmt 1
        movq      %rbx, 8(%rsp,%rax)                            #467.7
..___tag_value_main.96:
..LN147:
#       std::basic_filebuf<char, std::char_traits<char>>::basic_filebuf(std::basic_filebuf<char, std::char_traits<char>> *)
        call      std::basic_filebuf<char, std::char_traits<char> >::basic_filebuf() #467.7
..___tag_value_main.97:
..LN148:
                                # LOE rbx r12 r13 r14 r15
..B1.26:                        # Preds ..B1.25
..LN149:
	.loc    3  470  is_stmt 1
        movq      8(%rsp), %rax                                 #470.8
..LN150:
        lea       24(%rsp), %rsi                                #470.8
..LN151:
        movq      -24(%rax), %rdx                               #470.8
..LN152:
        lea       8(%rsp,%rdx), %rdi                            #470.8
..___tag_value_main.98:
..LN153:
#       std::basic_ios<char, std::char_traits<char>>::init(std::basic_ios<char, std::char_traits<char>> *, std::basic_streambuf<char, std::char_traits<char>> *)
        call      std::basic_ios<char, std::char_traits<char> >::init(std::basic_streambuf<char, std::char_traits<char> >*) #470.8
..___tag_value_main.99:
..LN154:
                                # LOE rbx r12 r13 r14 r15
..B1.27:                        # Preds ..B1.26
..LN155:
	.loc    3  540  is_stmt 1
        movl      $.L_2__STRING.2, %esi                         #540.18
..LN156:
        lea       24(%rsp), %rdi                                #540.18
..LN157:
        movl      $12, %edx                                     #540.18
..___tag_value_main.100:
..LN158:
#       std::basic_filebuf<char, std::char_traits<char>>::open(std::basic_filebuf<char, std::char_traits<char>> *, const char *, std::ios_base::openmode)
        call      std::basic_filebuf<char, std::char_traits<char> >::open(char const*, std::_Ios_Openmode) #540.18
..___tag_value_main.101:
..LN159:
                                # LOE rax rbx r12 r13 r14 r15
..B1.29:                        # Preds ..B1.27
..LN160:
        testq     %rax, %rax                                    #540.18
..LN161:
        je        ..B1.286      # Prob 12%                      #540.18
..LN162:
                                # LOE rbx r12 r13 r14 r15
..B1.30:                        # Preds ..B1.29
..LN163:
	.loc    3  545  is_stmt 1
        movq      8(%rsp), %rax                                 #545.10
..LN164:
        xorl      %esi, %esi                                    #545.10
..LN165:
        movq      -24(%rax), %rdx                               #545.10
..LN166:
        lea       8(%rsp,%rdx), %rdi                            #545.10
..___tag_value_main.102:
..LN167:
#       std::basic_ios<char, std::char_traits<char>>::clear(std::basic_ios<char, std::char_traits<char>> *, std::ios_base::iostate)
        call      std::basic_ios<char, std::char_traits<char> >::clear(std::_Ios_Iostate) #545.10
..___tag_value_main.103:
..LN168:
                                # LOE rbx r12 r13 r14 r15
..B1.31:                        # Preds ..B1.30 ..B1.286
..LN169:
	.loc    1  1213  is_stmt 1
        movl      $number_of_pairs, %esi                        #1213.7
..LN170:
        lea       8(%rsp), %rdi                                 #1213.7
..LN171:
        movl      $4, %edx                                      #1213.7
..___tag_value_main.104:
..LN172:
#       std::basic_istream<char, std::char_traits<char>>::read(std::basic_istream<char, std::char_traits<char>> *, std::basic_istream<char, std::char_traits<char>>::char_type *, std::streamsize)
        call      std::basic_istream<char, std::char_traits<char> >::read(char*, long)                                #1213.7
..___tag_value_main.105:
..LN173:
                                # LOE rbx r12 r13 r14 r15
..B1.33:                        # Preds ..B1.31
..LN174:
	.loc    1  1214  is_stmt 1
        movl      $number_of_partners, %esi                     #1214.7
..LN175:
        lea       8(%rsp), %rdi                                 #1214.7
..LN176:
        movl      $1600000, %edx                                #1214.7
..___tag_value_main.106:
..LN177:
#       std::basic_istream<char, std::char_traits<char>>::read(std::basic_istream<char, std::char_traits<char>> *, std::basic_istream<char, std::char_traits<char>>::char_type *, std::streamsize)
        call      std::basic_istream<char, std::char_traits<char> >::read(char*, long)                                #1214.7
..___tag_value_main.107:
..LN178:
                                # LOE rbx r12 r13 r14 r15
..B1.35:                        # Preds ..B1.33
..LN179:
	.loc    1  1215  is_stmt 1
        movl      $i_particles, %esi                            #1215.7
..LN180:
        lea       8(%rsp), %rdi                                 #1215.7
..LN181:
        movl      $48000000, %edx                               #1215.7
..___tag_value_main.108:
..LN182:
#       std::basic_istream<char, std::char_traits<char>>::read(std::basic_istream<char, std::char_traits<char>> *, std::basic_istream<char, std::char_traits<char>>::char_type *, std::streamsize)
        call      std::basic_istream<char, std::char_traits<char> >::read(char*, long)                                #1215.7
..___tag_value_main.109:
..LN183:
                                # LOE rbx r12 r13 r14 r15
..B1.37:                        # Preds ..B1.35
..LN184:
	.loc    1  1216  is_stmt 1
        movl      $j_particles, %esi                            #1216.7
..LN185:
        lea       8(%rsp), %rdi                                 #1216.7
..LN186:
        movl      $48000000, %edx                               #1216.7
..___tag_value_main.110:
..LN187:
#       std::basic_istream<char, std::char_traits<char>>::read(std::basic_istream<char, std::char_traits<char>> *, std::basic_istream<char, std::char_traits<char>>::char_type *, std::streamsize)
        call      std::basic_istream<char, std::char_traits<char> >::read(char*, long)                                #1216.7
..___tag_value_main.111:
..LN188:
                                # LOE rbx r12 r13 r14 r15
..B1.39:                        # Preds ..B1.37
..LN189:
	.loc    3  499  is_stmt 1
        movq      -24(%r15), %rax                               #499.7
..LN190:
	.loc    3  220  is_stmt 1
        lea       24(%rsp), %rdi                                #220.15
..LN191:
	.loc    1  1216  is_stmt 1
        movq      %r15, -16(%rdi)                               #1216.7
..LN192:
	.loc    3  499  is_stmt 1
        movq      %rbx, 8(%rsp,%rax)                            #499.7
..LN193:
	.loc    1  1216  is_stmt 1
        movq      vtable for std::basic_filebuf<char, std::char_traits<char> >+16, (%rdi) #1216.7
..___tag_value_main.112:
..LN194:
	.loc    3  220  is_stmt 1
#       std::basic_filebuf<char, std::char_traits<char>>::close(std::basic_filebuf<char, std::char_traits<char>> *)
        call      std::basic_filebuf<char, std::char_traits<char> >::close() #220.15
..___tag_value_main.113:
..LN195:
                                # LOE r12 r13 r14
..B1.41:                        # Preds ..B1.39
..LN196:
        lea       128(%rsp), %rdi                               #220.24
..___tag_value_main.114:
..LN197:
#       std::__basic_file<char>::~__basic_file(std::__basic_file<char> *)
        call      std::__basic_file<char>::~__basic_file()                    #220.24
..___tag_value_main.115:
..LN198:
                                # LOE r12 r13 r14
..B1.42:                        # Preds ..B1.41
..LN199:
	.file   6 "/home/app/gcc/4.8.5/include/c++/4.8.5/streambuf"
	.loc    6  198  is_stmt 1
        lea       80(%rsp), %rdi                                #198.9
..LN200:
	.loc    1  1216  is_stmt 1
        movq      vtable for std::basic_streambuf<char, std::char_traits<char> >+16, -56(%rdi) #1216.7
..LN201:
	.loc    6  198  is_stmt 1
#       std::locale::~locale(std::locale *)
        call      std::locale::~locale()                              #198.9
..LN202:
                                # LOE r12 r13 r14
..B1.43:                        # Preds ..B1.42
..LN203:
	.loc    5  104  is_stmt 1
        movq      -24(%r12), %rax                               #104.7
..LN204:
	.loc    1  1216  is_stmt 1
        movq      %r12, 8(%rsp)                                 #1216.7
..LN205:
	.loc    5  104  is_stmt 1
        movq      %r13, 8(%rsp,%rax)                            #104.7
..LN206:
	.loc    1  1216  is_stmt 1
        movq      $0, 16(%rsp)                                  #1216.7
..LN207:
                                # LOE r14
..B1.46:                        # Preds ..B1.43
..LN208:
	.loc    4  276  is_stmt 1
        lea       264(%rsp), %rdi                               #276.22
..LN209:
	.loc    1  1216  is_stmt 1
        movq      %r14, (%rdi)                                  #1216.7
..___tag_value_main.116:
..LN210:
	.loc    4  276  is_stmt 1
#       std::ios_base::~ios_base(std::ios_base *const)
        call      std::ios_base::~ios_base()                            #276.22
..___tag_value_main.117:
..LN211:
        jmp       ..B1.90       # Prob 100%                     #276.22
..LN212:
                                # LOE
..B1.48:                        # Preds ..B1.18
..LN213:
	.loc    1  1248  is_stmt 1
        movl      std::cerr, %edi                              #1248.15
..LN214:
        movl      $.L_2__STRING.5, %esi                         #1248.15
..___tag_value_main.118:
..LN215:
#       std::operator<<<std::char_traits<char>>(std::basic_ostream<char, std::char_traits<char>> &, const char *)
        call      std::basic_ostream<char, std::char_traits<char> >& std::operator<< <std::char_traits<char> >(std::basic_ostream<char, std::char_traits<char> >&, char const*) #1248.15
..___tag_value_main.119:
..LN216:
                                # LOE rax
..B1.49:                        # Preds ..B1.48
..LN217:
        movq      %rax, %rdi                                    #1248.35
..LN218:
        movl      std::basic_ostream<char, std::char_traits<char> >& std::endl<char, std::char_traits<char> >(std::basic_ostream<char, std::char_traits<char> >&), %esi #1248.35
..___tag_value_main.120:
..LN219:
#       std::basic_ostream<char, std::char_traits<char>>::operator<<(std::basic_ostream<char, std::char_traits<char>> *, std::basic_ostream<char, std::char_traits<char>>::__ostream_type &(*)(std::basic_ostream<char, std::char_traits<char>>::__ostream_type &))
        call      std::basic_ostream<char, std::char_traits<char> >::operator<<(std::basic_ostream<char, std::char_traits<char> >& (*)(std::basic_ostream<char, std::char_traits<char> >&))                              #1248.35
..___tag_value_main.121:
..LN220:
                                # LOE
..B1.50:                        # Preds ..B1.49
..LN221:
	.loc    1  136  is_stmt 1
        movl      particle_number(%rip), %ebx                   #136.18
..LN222:
	.loc    1  137  is_stmt 1
        testl     %ebx, %ebx                                    #137.23
..LN223:
        jle       ..B1.53       # Prob 50%                      #137.23
..LN224:
                                # LOE ebx
..B1.51:                        # Preds ..B1.50
..L122:         # optimization report
                # MEMOP WAS GENERATED FOR THIS LOOP
                # %s was not vectorized: inner loop was already vectorized
..LN225:
        cmpl      $24, %ebx                                     #137.3
..LN226:
        jle       ..B1.429      # Prob 0%                       #137.3
..LN227:
                                # LOE ebx
..B1.52:                        # Preds ..B1.51
..LN228:
	.loc    1  138  is_stmt 1
        movslq    %ebx, %rdx                                    #138.5
..LN229:
        movl      $number_of_partners, %edi                     #138.5
..LN230:
        shlq      $2, %rdx                                      #138.5
..LN231:
        xorl      %esi, %esi                                    #138.5
..LN232:
        call      __intel_avx_rep_memset                        #138.5
..LN233:
                                # LOE ebx
..B1.53:                        # Preds ..B1.435 ..B1.50 ..B1.433 ..B1.52
..LN234:
	.loc    1  140  is_stmt 1
        xorl      %esi, %esi                                    #140.14
..LN235:
        lea       -1(%rbx), %eax                                #140.41
..LN236:
        xorl      %ecx, %ecx                                    #140.14
..LN237:
        testl     %eax, %eax                                    #140.41
..LN238:
        jle       ..B1.63       # Prob 10%                      #140.41
..LN239:
                                # LOE rcx rsi ebx
..B1.54:                        # Preds ..B1.53
..LN240:
	.loc    1  141  is_stmt 1
        movslq    %ebx, %rbx                                    #141.5
..LN241:
	.loc    1  105  is_stmt 1
        movslq    number_of_pairs(%rip), %rdx                   #105.15
..LN242:
	.loc    1  146  is_stmt 1
        vmovsd    .L_2il0floatpacket.35(%rip), %xmm0            #146.16
..LN243:
	.loc    1  140  is_stmt 1
        lea       -1(%rbx), %rax                                #140.41
..LN244:
                                # LOE rax rdx rcx rbx rsi xmm0
..B1.55:                        # Preds ..B1.61 ..B1.54
..L123:         # optimization report
                # %s was not vectorized: vector dependence prevents vectorization%s
                # VECTOR TRIP COUNT IS ESTIMATED CONSTANT
..LN245:
	.loc    1  141  is_stmt 1
        movl      %esi, %r10d                                   #141.22
..LN246:
        movslq    %esi, %r9                                     #141.22
..LN247:
        lea       1(%r9), %r8                                   #141.22
..LN248:
        movq      %r8, %rdi                                     #141.22
..LN249:
        shlq      $5, %rdi                                      #141.22
..LN250:
        cmpq      %rbx, %r8                                     #141.29
..LN251:
        jge       ..B1.61       # Prob 10%                      #141.29
..LN252:
                                # LOE rax rdx rcx rbx rsi rdi r8 r9 r10d xmm0
..B1.56:                        # Preds ..B1.55
..LN253:
	.loc    1  142  is_stmt 1
        vmovsd    q(%rcx), %xmm3                                #142.25
..LN254:
	.loc    1  143  is_stmt 1
        vmovsd    8+q(%rcx), %xmm2                              #143.25
..LN255:
	.loc    1  144  is_stmt 1
        vmovsd    16+q(%rcx), %xmm1                             #144.25
..LN256:
                                # LOE rax rdx rcx rbx rsi rdi r8 r9 r10d xmm0 xmm1 xmm2 xmm3
..B1.57:                        # Preds ..B1.59 ..B1.56
..L124:         # optimization report
                # %s was not vectorized: vector dependence prevents vectorization%s
                # VECTOR TRIP COUNT IS ESTIMATED CONSTANT
..LN257:
	.loc    1  143  is_stmt 1
        vsubsd    8+q(%rdi), %xmm2, %xmm4                       #143.35
..LN258:
	.loc    1  142  is_stmt 1
        vsubsd    q(%rdi), %xmm3, %xmm6                         #142.35
..LN259:
	.loc    1  144  is_stmt 1
        vsubsd    16+q(%rdi), %xmm1, %xmm7                      #144.35
..LN260:
	.loc    1  145  is_stmt 1
        vmulsd    %xmm4, %xmm4, %xmm5                           #145.40
..LN261:
	.loc    1  146  is_stmt 1
        vfmadd213sd %xmm5, %xmm6, %xmm6                         #146.7
..LN262:
        vfmadd213sd %xmm6, %xmm7, %xmm7                         #146.7
..LN263:
        vcomisd   %xmm7, %xmm0                                  #146.16
..LN264:
        jbe       ..B1.59       # Prob 78%                      #146.16
..LN265:
                                # LOE rax rdx rcx rbx rsi rdi r8 r9 r10d xmm0 xmm1 xmm2 xmm3
..B1.58:                        # Preds ..B1.57
..LN266:
	.loc    1  102  is_stmt 1
        cmpq      %r8, %rsi                                     #102.5
..LN267:
	.loc    1  100  is_stmt 1
        movl      %r8d, %r11d                                   #100.5
..LN268:
	.loc    1  102  is_stmt 1
        movslq    %r8d, %r12                                    #102.5
..LN269:
        cmovl     %r9, %r12                                     #102.5
..LN270:
	.loc    1  106  is_stmt 1
        cmovge    %r10d, %r11d                                  #106.3
..LN271:
        movl      %r11d, j_particles(,%rdx,4)                   #106.3
..LN272:
	.loc    1  105  is_stmt 1
        movl      %r12d, i_particles(,%rdx,4)                   #105.3
..LN273:
	.loc    1  108  is_stmt 1
        incq      %rdx                                          #108.3
..LN274:
        movl      %edx, number_of_pairs(%rip)                   #108.3
..LN275:
	.loc    1  107  is_stmt 1
        incl      number_of_partners(,%r12,4)                   #107.3
..LN276:
                                # LOE rax rdx rcx rbx rsi rdi r8 r9 r10d xmm0 xmm1 xmm2 xmm3
..B1.59:                        # Preds ..B1.58 ..B1.57
..LN277:
	.loc    1  141  is_stmt 1
        incq      %r8                                           #141.46
..LN278:
        addq      $32, %rdi                                     #141.46
..LN279:
        cmpq      %rbx, %r8                                     #141.29
..LN280:
        jl        ..B1.57       # Prob 82%                      #141.29
..LN281:
                                # LOE rax rdx rcx rbx rsi rdi r8 r9 r10d xmm0 xmm1 xmm2 xmm3
..B1.61:                        # Preds ..B1.59 ..B1.55
..LN282:
	.loc    1  140  is_stmt 1
        .byte     15                                            #140.44
..LN283:
        .byte     31                                            #140.44
..LN284:
        .byte     64                                            #140.44
..LN285:
        .byte     0                                             #140.44
..LN286:
        incq      %rsi                                          #140.44
..LN287:
        addq      $32, %rcx                                     #140.44
..LN288:
        cmpq      %rax, %rsi                                    #140.41
..LN289:
        jl        ..B1.55       # Prob 99%                      #140.41
..LN290:
                                # LOE rax rdx rcx rbx rsi xmm0
..B1.63:                        # Preds ..B1.61 ..B1.53
..LN291:
	.loc    3  643  is_stmt 1
        movq      VTT for std::basic_ofstream<char, std::char_traits<char> >(%rip), %r15 #643.7
..LN292:
	.loc    4  454  is_stmt 1
        lea       776(%rsp), %rdi                               #454.7
..LN293:
	.loc    1  1222  is_stmt 1
        movq      %r15, -248(%rdi)                              #1222.17
..LN294:
	.loc    4  454  is_stmt 1
        vzeroupper                                              #454.7
..LN295:
#       std::ios_base::ios_base(std::ios_base *const)
        call      std::ios_base::ios_base()                            #454.7
..LN296:
                                # LOE r15
..B1.64:                        # Preds ..B1.63
..LN297:
        movl      vtable for std::basic_ios<char, std::char_traits<char> >+16, %r14d #454.7
..LN298:
	.loc    1  1222  is_stmt 1
        xorl      %eax, %eax                                    #1222.17
..LN299:
        movq      %r14, 776(%rsp)                               #1222.17
..LN300:
        movq      %rax, 992(%rsp)                               #1222.17
..LN301:
        movb      $0, 1000(%rsp)                                #1222.17
..LN302:
        movb      $0, 1001(%rsp)                                #1222.17
..LN303:
        movq      %rax, 1008(%rsp)                              #1222.17
..LN304:
        movq      %rax, 1016(%rsp)                              #1222.17
..LN305:
        movq      %rax, 1024(%rsp)                              #1222.17
..LN306:
        movq      %rax, 1032(%rsp)                              #1222.17
..LN307:
                                # LOE r14 r15
..B1.66:                        # Preds ..B1.64
..LN308:
	.file   7 "/home/app/gcc/4.8.5/include/c++/4.8.5/ostream"
	.loc    7  384  is_stmt 1
        movq      8+VTT for std::basic_ofstream<char, std::char_traits<char> >(%rip), %r12 #384.7
..LN309:
	.loc    7  385  is_stmt 1
        xorl      %esi, %esi                                    #385.15
..LN310:
	.loc    7  384  is_stmt 1
        movq      16+VTT for std::basic_ofstream<char, std::char_traits<char> >(%rip), %r13 #384.7
..LN311:
	.loc    1  1222  is_stmt 1
        movq      %r12, 528(%rsp)                               #1222.17
..LN312:
	.loc    7  384  is_stmt 1
        movq      -24(%r12), %rax                               #384.7
..LN313:
        movq      %r13, 528(%rsp,%rax)                          #384.7
..LN314:
	.loc    7  385  is_stmt 1
        movq      528(%rsp), %rdx                               #385.15
..LN315:
        movq      -24(%rdx), %rcx                               #385.15
..LN316:
        lea       528(%rsp,%rcx), %rdi                          #385.15
..___tag_value_main.125:
..LN317:
#       std::basic_ios<char, std::char_traits<char>>::init(std::basic_ios<char, std::char_traits<char>> *, std::basic_streambuf<char, std::char_traits<char>> *)
        call      std::basic_ios<char, std::char_traits<char> >::init(std::basic_streambuf<char, std::char_traits<char> >*) #385.15
..___tag_value_main.126:
..LN318:
                                # LOE r12 r13 r14 r15
..B1.67:                        # Preds ..B1.66
..LN319:
	.loc    3  640  is_stmt 1
        movq      -24(%r15), %rax                               #640.7
..LN320:
        lea       536(%rsp), %rdi                               #640.7
..LN321:
        movq      24+VTT for std::basic_ofstream<char, std::char_traits<char> >(%rip), %rbx #640.7
..LN322:
	.loc    1  1222  is_stmt 1
        movq      %r15, -8(%rdi)                                #1222.17
..LN323:
	.loc    3  640  is_stmt 1
        movq      %rbx, 528(%rsp,%rax)                          #640.7
..___tag_value_main.127:
..LN324:
#       std::basic_filebuf<char, std::char_traits<char>>::basic_filebuf(std::basic_filebuf<char, std::char_traits<char>> *)
        call      std::basic_filebuf<char, std::char_traits<char> >::basic_filebuf() #640.7
..___tag_value_main.128:
..LN325:
                                # LOE rbx r12 r13 r14 r15
..B1.68:                        # Preds ..B1.67
..LN326:
	.loc    3  644  is_stmt 1
        movq      528(%rsp), %rax                               #644.8
..LN327:
        lea       536(%rsp), %rsi                               #644.8
..LN328:
        movq      -24(%rax), %rdx                               #644.8
..LN329:
        lea       528(%rsp,%rdx), %rdi                          #644.8
..___tag_value_main.129:
..LN330:
#       std::basic_ios<char, std::char_traits<char>>::init(std::basic_ios<char, std::char_traits<char>> *, std::basic_streambuf<char, std::char_traits<char>> *)
        call      std::basic_ios<char, std::char_traits<char> >::init(std::basic_streambuf<char, std::char_traits<char> >*) #644.8
..___tag_value_main.130:
..LN331:
                                # LOE rbx r12 r13 r14 r15
..B1.69:                        # Preds ..B1.68
..LN332:
	.loc    3  716  is_stmt 1
        movl      $.L_2__STRING.2, %esi                         #716.18
..LN333:
        lea       536(%rsp), %rdi                               #716.18
..LN334:
        movl      $20, %edx                                     #716.18
..___tag_value_main.131:
..LN335:
#       std::basic_filebuf<char, std::char_traits<char>>::open(std::basic_filebuf<char, std::char_traits<char>> *, const char *, std::ios_base::openmode)
        call      std::basic_filebuf<char, std::char_traits<char> >::open(char const*, std::_Ios_Openmode) #716.18
..___tag_value_main.132:
..LN336:
                                # LOE rax rbx r12 r13 r14 r15
..B1.71:                        # Preds ..B1.69
..LN337:
        testq     %rax, %rax                                    #716.18
..LN338:
        je        ..B1.417      # Prob 12%                      #716.18
..LN339:
                                # LOE rbx r12 r13 r14 r15
..B1.72:                        # Preds ..B1.71
..LN340:
	.loc    3  721  is_stmt 1
        movq      528(%rsp), %rax                               #721.10
..LN341:
        xorl      %esi, %esi                                    #721.10
..LN342:
        movq      -24(%rax), %rdx                               #721.10
..LN343:
        lea       528(%rsp,%rdx), %rdi                          #721.10
..___tag_value_main.133:
..LN344:
#       std::basic_ios<char, std::char_traits<char>>::clear(std::basic_ios<char, std::char_traits<char>> *, std::ios_base::iostate)
        call      std::basic_ios<char, std::char_traits<char> >::clear(std::_Ios_Iostate) #721.10
..___tag_value_main.134:
..LN345:
                                # LOE rbx r12 r13 r14 r15
..B1.73:                        # Preds ..B1.72 ..B1.417
..LN346:
	.loc    1  1223  is_stmt 1
        movl      $number_of_pairs, %esi                        #1223.7
..LN347:
        lea       528(%rsp), %rdi                               #1223.7
..LN348:
        movl      $4, %edx                                      #1223.7
..___tag_value_main.135:
..LN349:
#       std::basic_ostream<char, std::char_traits<char>>::write(std::basic_ostream<char, std::char_traits<char>> *, const std::basic_ostream<char, std::char_traits<char>>::char_type *, std::streamsize)
        call      std::basic_ostream<char, std::char_traits<char> >::write(char const*, long)                              #1223.7
..___tag_value_main.136:
..LN350:
                                # LOE rbx r12 r13 r14 r15
..B1.75:                        # Preds ..B1.73
..LN351:
	.loc    1  1224  is_stmt 1
        movl      $number_of_partners, %esi                     #1224.7
..LN352:
        lea       528(%rsp), %rdi                               #1224.7
..LN353:
        movl      $1600000, %edx                                #1224.7
..___tag_value_main.137:
..LN354:
#       std::basic_ostream<char, std::char_traits<char>>::write(std::basic_ostream<char, std::char_traits<char>> *, const std::basic_ostream<char, std::char_traits<char>>::char_type *, std::streamsize)
        call      std::basic_ostream<char, std::char_traits<char> >::write(char const*, long)                              #1224.7
..___tag_value_main.138:
..LN355:
                                # LOE rbx r12 r13 r14 r15
..B1.77:                        # Preds ..B1.75
..LN356:
	.loc    1  1225  is_stmt 1
        movl      $i_particles, %esi                            #1225.7
..LN357:
        lea       528(%rsp), %rdi                               #1225.7
..LN358:
        movl      $48000000, %edx                               #1225.7
..___tag_value_main.139:
..LN359:
#       std::basic_ostream<char, std::char_traits<char>>::write(std::basic_ostream<char, std::char_traits<char>> *, const std::basic_ostream<char, std::char_traits<char>>::char_type *, std::streamsize)
        call      std::basic_ostream<char, std::char_traits<char> >::write(char const*, long)                              #1225.7
..___tag_value_main.140:
..LN360:
                                # LOE rbx r12 r13 r14 r15
..B1.79:                        # Preds ..B1.77
..LN361:
	.loc    1  1226  is_stmt 1
        movl      $j_particles, %esi                            #1226.7
..LN362:
        lea       528(%rsp), %rdi                               #1226.7
..LN363:
        movl      $48000000, %edx                               #1226.7
..___tag_value_main.141:
..LN364:
#       std::basic_ostream<char, std::char_traits<char>>::write(std::basic_ostream<char, std::char_traits<char>> *, const std::basic_ostream<char, std::char_traits<char>>::char_type *, std::streamsize)
        call      std::basic_ostream<char, std::char_traits<char> >::write(char const*, long)                              #1226.7
..___tag_value_main.142:
..LN365:
                                # LOE rbx r12 r13 r14 r15
..B1.81:                        # Preds ..B1.79
..LN366:
	.loc    3  674  is_stmt 1
        movq      -24(%r15), %rax                               #674.7
..LN367:
	.loc    3  220  is_stmt 1
        lea       536(%rsp), %rdi                               #220.15
..LN368:
	.loc    1  1226  is_stmt 1
        movq      %r15, -8(%rdi)                                #1226.7
..LN369:
	.loc    3  674  is_stmt 1
        movq      %rbx, 528(%rsp,%rax)                          #674.7
..LN370:
	.loc    1  1226  is_stmt 1
        movq      vtable for std::basic_filebuf<char, std::char_traits<char> >+16, (%rdi) #1226.7
..___tag_value_main.143:
..LN371:
	.loc    3  220  is_stmt 1
#       std::basic_filebuf<char, std::char_traits<char>>::close(std::basic_filebuf<char, std::char_traits<char>> *)
        call      std::basic_filebuf<char, std::char_traits<char> >::close() #220.15
..___tag_value_main.144:
..LN372:
                                # LOE r12 r13 r14
..B1.83:                        # Preds ..B1.81
..LN373:
        lea       640(%rsp), %rdi                               #220.24
..___tag_value_main.145:
..LN374:
#       std::__basic_file<char>::~__basic_file(std::__basic_file<char> *)
        call      std::__basic_file<char>::~__basic_file()                    #220.24
..___tag_value_main.146:
..LN375:
                                # LOE r12 r13 r14
..B1.84:                        # Preds ..B1.83
..LN376:
	.loc    6  198  is_stmt 1
        lea       592(%rsp), %rdi                               #198.9
..LN377:
	.loc    1  1226  is_stmt 1
        movq      vtable for std::basic_streambuf<char, std::char_traits<char> >+16, -56(%rdi) #1226.7
..LN378:
	.loc    6  198  is_stmt 1
#       std::locale::~locale(std::locale *)
        call      std::locale::~locale()                              #198.9
..LN379:
                                # LOE r12 r13 r14
..B1.85:                        # Preds ..B1.84
..LN380:
	.loc    7  93  is_stmt 1
        movq      -24(%r12), %rax                               #93.24
..LN381:
	.loc    1  1226  is_stmt 1
        movq      %r12, 528(%rsp)                               #1226.7
..LN382:
	.loc    7  93  is_stmt 1
        movq      %r13, 528(%rsp,%rax)                          #93.24
..LN383:
                                # LOE r14
..B1.88:                        # Preds ..B1.85
..LN384:
	.loc    4  276  is_stmt 1
        lea       776(%rsp), %rdi                               #276.22
..LN385:
	.loc    1  1226  is_stmt 1
        movq      %r14, (%rdi)                                  #1226.7
..___tag_value_main.147:
..LN386:
	.loc    4  276  is_stmt 1
#       std::ios_base::~ios_base(std::ios_base *const)
        call      std::ios_base::~ios_base()                            #276.22
..___tag_value_main.148:
..LN387:
                                # LOE
..B1.90:                        # Preds ..B1.88 ..B1.46
..LN388:
	.loc    1  1251  is_stmt 1
        movl      std::cerr, %edi                              #1251.13
..LN389:
        movl      $.L_2__STRING.6, %esi                         #1251.13
..___tag_value_main.149:
..LN390:
#       std::operator<<<std::char_traits<char>>(std::basic_ostream<char, std::char_traits<char>> &, const char *)
        call      std::basic_ostream<char, std::char_traits<char> >& std::operator<< <std::char_traits<char> >(std::basic_ostream<char, std::char_traits<char> >&, char const*) #1251.13
..___tag_value_main.150:
..LN391:
                                # LOE rax
..B1.91:                        # Preds ..B1.90
..LN392:
        movq      %rax, %rdi                                    #1251.36
..LN393:
        movl      number_of_pairs(%rip), %esi                   #1251.36
..___tag_value_main.151:
..LN394:
#       std::basic_ostream<char, std::char_traits<char>>::operator<<(std::basic_ostream<char, std::char_traits<char>> *, int)
        call      std::basic_ostream<char, std::char_traits<char> >::operator<<(int)                                     #1251.36
..___tag_value_main.152:
..LN395:
                                # LOE rax
..B1.92:                        # Preds ..B1.91
..LN396:
        movq      %rax, %rdi                                    #1251.55
..LN397:
        movl      std::basic_ostream<char, std::char_traits<char> >& std::endl<char, std::char_traits<char> >(std::basic_ostream<char, std::char_traits<char> >&), %esi #1251.55
..___tag_value_main.153:
..LN398:
#       std::basic_ostream<char, std::char_traits<char>>::operator<<(std::basic_ostream<char, std::char_traits<char>> *, std::basic_ostream<char, std::char_traits<char>>::__ostream_type &(*)(std::basic_ostream<char, std::char_traits<char>>::__ostream_type &))
        call      std::basic_ostream<char, std::char_traits<char> >::operator<<(std::basic_ostream<char, std::char_traits<char> >& (*)(std::basic_ostream<char, std::char_traits<char> >&))                              #1251.55
..___tag_value_main.154:
..LN399:
                                # LOE
..B1.93:                        # Preds ..B1.92
..LN400:
	.loc    1  113  is_stmt 1
        movl      particle_number(%rip), %r8d                   #113.18
..LN401:
	.loc    1  114  is_stmt 1
        xorl      %ebx, %ebx                                    #114.11
..LN402:
	.loc    1  115  is_stmt 1
        movl      $0, pointer(%rip)                             #115.3
..LN403:
	.loc    1  116  is_stmt 1
        lea       -1(%r8), %ecx                                 #116.28
..LN404:
        testl     %ecx, %ecx                                    #116.28
..LN405:
        jle       ..B1.100      # Prob 50%                      #116.28
..LN406:
                                # LOE ecx ebx r8d
..B1.94:                        # Preds ..B1.93
..LN407:
        movl      %ecx, %eax                                    #116.3
..LN408:
        movl      $1, %esi                                      #116.3
..LN409:
        shrl      $31, %eax                                     #116.3
..LN410:
        xorl      %edx, %edx                                    #116.3
..LN411:
        lea       -1(%r8,%rax), %eax                            #116.3
..LN412:
        sarl      $1, %eax                                      #116.3
..LN413:
        movslq    %eax, %rax                                    #116.3
..LN414:
        testq     %rax, %rax                                    #116.3
..LN415:
        jbe       ..B1.98       # Prob 9%                       #116.3
..LN416:
                                # LOE rax rdx ecx ebx esi r8d
..B1.96:                        # Preds ..B1.94 ..B1.96
..L155:         # optimization report
                # LOOP WAS UNROLLED BY 2
                # %s was not vectorized: vector dependence prevents vectorization%s
                # VECTOR TRIP COUNT IS ESTIMATED CONSTANT
..LN417:
	.loc    1  117  is_stmt 1
        addl      number_of_partners(,%rdx,8), %ebx             #117.5
..LN418:
        movl      4+number_of_partners(,%rdx,8), %esi           #117.12
..LN419:
	.loc    1  118  is_stmt 1
        movl      %ebx, 4+pointer(,%rdx,8)                      #118.5
..LN420:
	.loc    1  117  is_stmt 1
        addl      %esi, %ebx                                    #117.5
..LN421:
	.loc    1  118  is_stmt 1
        movl      %ebx, 8+pointer(,%rdx,8)                      #118.5
..LN422:
	.loc    1  116  is_stmt 1
        incq      %rdx                                          #116.3
..LN423:
        cmpq      %rax, %rdx                                    #116.3
..LN424:
        jb        ..B1.96       # Prob 99%                      #116.3
..LN425:
                                # LOE rax rdx ecx ebx r8d
..B1.97:                        # Preds ..B1.96
..LN426:
	.loc    1  117  is_stmt 1
        lea       1(%rdx,%rdx), %esi                            #117.5
..LN427:
                                # LOE ecx ebx esi r8d
..B1.98:                        # Preds ..B1.97 ..B1.94
..LN428:
	.loc    1  116  is_stmt 1
        lea       -1(%rsi), %eax                                #116.3
..LN429:
        cmpl      %eax, %ecx                                    #116.3
..LN430:
        jbe       ..B1.100      # Prob 9%                       #116.3
..LN431:
                                # LOE ebx esi r8d
..B1.99:                        # Preds ..B1.98
..L156:         # optimization report
                # REMAINDER LOOP
                # %s was not vectorized: vector dependence prevents vectorization%s
                # VECTOR TRIP COUNT IS ESTIMATED CONSTANT
..LN432:
	.loc    1  117  is_stmt 1
        movslq    %esi, %rsi                                    #117.12
..LN433:
        addl      -4+number_of_partners(,%rsi,4), %ebx          #117.5
..LN434:
	.loc    1  118  is_stmt 1
        movl      %ebx, pointer(,%rsi,4)                        #118.5
..LN435:
                                # LOE r8d
..B1.100:                       # Preds ..B1.93 ..B1.98 ..B1.99
..LN436:
	.loc    1  120  is_stmt 1
        testl     %r8d, %r8d                                    #120.23
..LN437:
        jle       ..B1.103      # Prob 50%                      #120.23
..LN438:
                                # LOE r8d
..B1.101:                       # Preds ..B1.100
..L157:         # optimization report
                # MEMOP WAS GENERATED FOR THIS LOOP
                # %s was not vectorized: inner loop was already vectorized
..LN439:
        cmpl      $24, %r8d                                     #120.3
..LN440:
        jle       ..B1.298      # Prob 0%                       #120.3
..LN441:
                                # LOE r8d
..B1.102:                       # Preds ..B1.101
..LN442:
	.loc    1  121  is_stmt 1
        movslq    %r8d, %r8                                     #121.5
..LN443:
        movl      $pointer2, %edi                               #121.5
..LN444:
        shlq      $2, %r8                                       #121.5
..LN445:
        xorl      %esi, %esi                                    #121.5
..LN446:
        movq      %r8, %rdx                                     #121.5
..LN447:
        call      __intel_avx_rep_memset                        #121.5
..LN448:
                                # LOE
..B1.103:                       # Preds ..B1.304 ..B1.102 ..B1.100 ..B1.302
..LN449:
	.loc    1  123  is_stmt 1
        movslq    number_of_pairs(%rip), %rdx                   #123.17
..LN450:
	.loc    1  124  is_stmt 1
        xorl      %eax, %eax                                    #124.14
..LN451:
        testq     %rdx, %rdx                                    #124.23
..LN452:
        jle       ..B1.107      # Prob 10%                      #124.23
..LN453:
                                # LOE rax rdx
..B1.105:                       # Preds ..B1.103 ..B1.105
..L158:         # optimization report
                # %s was not vectorized: vector dependence prevents vectorization%s
                # VECTOR TRIP COUNT IS ESTIMATED CONSTANT
..LN454:
	.loc    1  125  is_stmt 1
        movslq    i_particles(,%rax,4), %rdi                    #125.13
..LN455:
	.loc    1  126  is_stmt 1
        movl      j_particles(,%rax,4), %ebx                    #126.13
..LN456:
	.loc    1  124  is_stmt 1
        incq      %rax                                          #124.26
..LN457:
	.loc    1  127  is_stmt 1
        movl      pointer2(,%rdi,4), %esi                       #127.30
..LN458:
        movl      pointer(,%rdi,4), %ecx                        #127.17
..LN459:
        addl      %esi, %ecx                                    #127.30
..LN460:
	.loc    1  129  is_stmt 1
        incl      %esi                                          #129.5
..LN461:
	.loc    1  128  is_stmt 1
        movslq    %ecx, %rcx                                    #128.5
..LN462:
	.loc    1  129  is_stmt 1
        movl      %esi, pointer2(,%rdi,4)                       #129.5
..LN463:
	.loc    1  128  is_stmt 1
        movl      %ebx, sorted_list(,%rcx,4)                    #128.5
..LN464:
	.loc    1  124  is_stmt 1
        cmpq      %rdx, %rax                                    #124.23
..LN465:
        jl        ..B1.105      # Prob 99%                      #124.23
..LN466:
                                # LOE rax rdx
..B1.107:                       # Preds ..B1.105 ..B1.103
..LN467:
	.loc    1  91  is_stmt 1
        xorl      %esi, %esi                                    #91.3
..LN468:
        lea       1184(%rsp), %rdi                              #91.3
..LN469:
        vzeroupper                                              #91.3
..LN470:
#       gettimeofday(timeval *, timezone *)
        call      gettimeofday                                  #91.3
..LN471:
                                # LOE
..B1.108:                       # Preds ..B1.107
..LN472:
	.loc    1  92  is_stmt 1
        vxorpd    %xmm0, %xmm0, %xmm0                           #92.21
..LN473:
        vxorpd    %xmm1, %xmm1, %xmm1                           #92.10
..LN474:
        vcvtsi2sdq 1192(%rsp), %xmm0, %xmm0                     #92.21
..LN475:
        vcvtsi2sdq 1184(%rsp), %xmm1, %xmm1                     #92.10
..LN476:
	.loc    1  1200  is_stmt 1
        vfmadd231sd .L_2il0floatpacket.36(%rip), %xmm0, %xmm1   #1200.15
..LN477:
	.loc    1  1203  is_stmt 1
        xorb      %bl, %bl                                      #1203.14
..LN478:
	.loc    1  1200  is_stmt 1
        vmovsd    %xmm1, (%rsp)                                 #1200.15
..LN479:
                                # LOE bl
..B1.109:                       # Preds ..B1.110 ..B1.108
..L159:         # optimization report
                # %s was not vectorized: vector dependence prevents vectorization%s
                # VECTOR TRIP COUNT IS KNOWN CONSTANT
..___tag_value_main.160:
..LN480:
	.loc    1  1204  is_stmt 1
#       force_pair()
        call      force_pair()                               #1204.5
..___tag_value_main.161:
..LN481:
                                # LOE bl
..B1.110:                       # Preds ..B1.109
..LN482:
	.loc    1  1203  is_stmt 1
        incb      %bl                                           #1203.29
..LN483:
        cmpb      $100, %bl                                     #1203.23
..LN484:
        jl        ..B1.109      # Prob 99%                      #1203.23
..LN485:
                                # LOE bl
..B1.111:                       # Preds ..B1.110
..LN486:
	.loc    1  91  is_stmt 1
        xorl      %esi, %esi                                    #91.3
..LN487:
        lea       1200(%rsp), %rdi                              #91.3
..LN488:
#       gettimeofday(timeval *, timezone *)
        call      gettimeofday                                  #91.3
..LN489:
                                # LOE
..B1.112:                       # Preds ..B1.111
..LN490:
	.loc    1  1207  is_stmt 1
        vxorpd    %xmm0, %xmm0, %xmm0                           #1207.3
..LN491:
        vxorpd    %xmm1, %xmm1, %xmm1                           #1207.3
..LN492:
        vcvtsi2sdq 1208(%rsp), %xmm0, %xmm0                     #1207.3
..LN493:
        vcvtsi2sdq 1200(%rsp), %xmm1, %xmm1                     #1207.3
..LN494:
        vfmadd231sd .L_2il0floatpacket.36(%rip), %xmm0, %xmm1   #1207.3
..LN495:
        movl      $.L_2__STRING.1, %esi                         #1207.3
..LN496:
        movl      $.L_2__STRING.7, %ecx                         #1207.3
..LN497:
        movl      $1, %eax                                      #1207.3
..LN498:
        movq      stderr(%rip), %rdi                            #1207.3
..LN499:
        movl      particle_number(%rip), %edx                   #1207.3
..LN500:
        vsubsd    (%rsp), %xmm1, %xmm0                          #1207.3
..LN501:
#       fprintf(FILE *, const char *, ...)
        call      fprintf                                       #1207.3
..LN502:
                                # LOE
..B1.113:                       # Preds ..B1.112
..LN503:
	.loc    1  91  is_stmt 1
        xorl      %esi, %esi                                    #91.3
..LN504:
        lea       1216(%rsp), %rdi                              #91.3
..LN505:
#       gettimeofday(timeval *, timezone *)
        call      gettimeofday                                  #91.3
..LN506:
                                # LOE
..B1.114:                       # Preds ..B1.113
..LN507:
	.loc    1  92  is_stmt 1
        vxorpd    %xmm0, %xmm0, %xmm0                           #92.21
..LN508:
        vxorpd    %xmm1, %xmm1, %xmm1                           #92.10
..LN509:
        vcvtsi2sdq 1224(%rsp), %xmm0, %xmm0                     #92.21
..LN510:
        vcvtsi2sdq 1216(%rsp), %xmm1, %xmm1                     #92.10
..LN511:
	.loc    1  1200  is_stmt 1
        vfmadd231sd .L_2il0floatpacket.36(%rip), %xmm0, %xmm1   #1200.15
..LN512:
	.loc    1  1203  is_stmt 1
        xorb      %bl, %bl                                      #1203.14
..LN513:
	.loc    1  1200  is_stmt 1
        vmovsd    %xmm1, (%rsp)                                 #1200.15
..LN514:
                                # LOE bl
..B1.115:                       # Preds ..B1.116 ..B1.114
..L162:         # optimization report
                # %s was not vectorized: vector dependence prevents vectorization%s
                # VECTOR TRIP COUNT IS KNOWN CONSTANT
..___tag_value_main.163:
..LN515:
	.loc    1  1204  is_stmt 1
#       force_pair_swp()
        call      force_pair_swp()                           #1204.5
..___tag_value_main.164:
..LN516:
                                # LOE bl
..B1.116:                       # Preds ..B1.115
..LN517:
	.loc    1  1203  is_stmt 1
        incb      %bl                                           #1203.29
..LN518:
        cmpb      $100, %bl                                     #1203.23
..LN519:
        jl        ..B1.115      # Prob 99%                      #1203.23
..LN520:
                                # LOE bl
..B1.117:                       # Preds ..B1.116
..LN521:
	.loc    1  91  is_stmt 1
        xorl      %esi, %esi                                    #91.3
..LN522:
        lea       1232(%rsp), %rdi                              #91.3
..LN523:
#       gettimeofday(timeval *, timezone *)
        call      gettimeofday                                  #91.3
..LN524:
                                # LOE
..B1.118:                       # Preds ..B1.117
..LN525:
	.loc    1  1207  is_stmt 1
        vxorpd    %xmm0, %xmm0, %xmm0                           #1207.3
..LN526:
        vxorpd    %xmm1, %xmm1, %xmm1                           #1207.3
..LN527:
        vcvtsi2sdq 1240(%rsp), %xmm0, %xmm0                     #1207.3
..LN528:
        vcvtsi2sdq 1232(%rsp), %xmm1, %xmm1                     #1207.3
..LN529:
        vfmadd231sd .L_2il0floatpacket.36(%rip), %xmm0, %xmm1   #1207.3
..LN530:
        movl      $.L_2__STRING.1, %esi                         #1207.3
..LN531:
        movl      $.L_2__STRING.8, %ecx                         #1207.3
..LN532:
        movl      $1, %eax                                      #1207.3
..LN533:
        movq      stderr(%rip), %rdi                            #1207.3
..LN534:
        movl      particle_number(%rip), %edx                   #1207.3
..LN535:
        vsubsd    (%rsp), %xmm1, %xmm0                          #1207.3
..LN536:
#       fprintf(FILE *, const char *, ...)
        call      fprintf                                       #1207.3
..LN537:
                                # LOE
..B1.119:                       # Preds ..B1.118
..LN538:
	.loc    1  91  is_stmt 1
        xorl      %esi, %esi                                    #91.3
..LN539:
        lea       1248(%rsp), %rdi                              #91.3
..LN540:
#       gettimeofday(timeval *, timezone *)
        call      gettimeofday                                  #91.3
..LN541:
                                # LOE
..B1.120:                       # Preds ..B1.119
..LN542:
	.loc    1  92  is_stmt 1
        vxorpd    %xmm0, %xmm0, %xmm0                           #92.21
..LN543:
        vxorpd    %xmm1, %xmm1, %xmm1                           #92.10
..LN544:
        vcvtsi2sdq 1256(%rsp), %xmm0, %xmm0                     #92.21
..LN545:
        vcvtsi2sdq 1248(%rsp), %xmm1, %xmm1                     #92.10
..LN546:
	.loc    1  1200  is_stmt 1
        vfmadd231sd .L_2il0floatpacket.36(%rip), %xmm0, %xmm1   #1200.15
..LN547:
	.loc    1  1203  is_stmt 1
        xorb      %bl, %bl                                      #1203.14
..LN548:
	.loc    1  1200  is_stmt 1
        vmovsd    %xmm1, (%rsp)                                 #1200.15
..LN549:
                                # LOE bl
..B1.121:                       # Preds ..B1.122 ..B1.120
..L165:         # optimization report
                # %s was not vectorized: vector dependence prevents vectorization%s
                # VECTOR TRIP COUNT IS KNOWN CONSTANT
..___tag_value_main.166:
..LN550:
	.loc    1  1204  is_stmt 1
#       force_pair_swp_intrin()
        call      force_pair_swp_intrin()                    #1204.5
..___tag_value_main.167:
..LN551:
                                # LOE bl
..B1.122:                       # Preds ..B1.121
..LN552:
	.loc    1  1203  is_stmt 1
        incb      %bl                                           #1203.29
..LN553:
        cmpb      $100, %bl                                     #1203.23
..LN554:
        jl        ..B1.121      # Prob 99%                      #1203.23
..LN555:
                                # LOE bl
..B1.123:                       # Preds ..B1.122
..LN556:
	.loc    1  91  is_stmt 1
        xorl      %esi, %esi                                    #91.3
..LN557:
        lea       1264(%rsp), %rdi                              #91.3
..LN558:
#       gettimeofday(timeval *, timezone *)
        call      gettimeofday                                  #91.3
..LN559:
                                # LOE
..B1.124:                       # Preds ..B1.123
..LN560:
	.loc    1  1207  is_stmt 1
        vxorpd    %xmm0, %xmm0, %xmm0                           #1207.3
..LN561:
        vxorpd    %xmm1, %xmm1, %xmm1                           #1207.3
..LN562:
        vcvtsi2sdq 1272(%rsp), %xmm0, %xmm0                     #1207.3
..LN563:
        vcvtsi2sdq 1264(%rsp), %xmm1, %xmm1                     #1207.3
..LN564:
        vfmadd231sd .L_2il0floatpacket.36(%rip), %xmm0, %xmm1   #1207.3
..LN565:
        movl      $.L_2__STRING.1, %esi                         #1207.3
..LN566:
        movl      $.L_2__STRING.9, %ecx                         #1207.3
..LN567:
        movl      $1, %eax                                      #1207.3
..LN568:
        movq      stderr(%rip), %rdi                            #1207.3
..LN569:
        movl      particle_number(%rip), %edx                   #1207.3
..LN570:
        vsubsd    (%rsp), %xmm1, %xmm0                          #1207.3
..LN571:
#       fprintf(FILE *, const char *, ...)
        call      fprintf                                       #1207.3
..LN572:
                                # LOE
..B1.125:                       # Preds ..B1.124
..LN573:
	.loc    1  91  is_stmt 1
        xorl      %esi, %esi                                    #91.3
..LN574:
        lea       1280(%rsp), %rdi                              #91.3
..LN575:
#       gettimeofday(timeval *, timezone *)
        call      gettimeofday                                  #91.3
..LN576:
                                # LOE
..B1.126:                       # Preds ..B1.125
..LN577:
	.loc    1  92  is_stmt 1
        vxorpd    %xmm0, %xmm0, %xmm0                           #92.21
..LN578:
        vxorpd    %xmm1, %xmm1, %xmm1                           #92.10
..LN579:
        vcvtsi2sdq 1288(%rsp), %xmm0, %xmm0                     #92.21
..LN580:
        vcvtsi2sdq 1280(%rsp), %xmm1, %xmm1                     #92.10
..LN581:
	.loc    1  1200  is_stmt 1
        vfmadd231sd .L_2il0floatpacket.36(%rip), %xmm0, %xmm1   #1200.15
..LN582:
	.loc    1  1203  is_stmt 1
        xorb      %bl, %bl                                      #1203.14
..LN583:
	.loc    1  1200  is_stmt 1
        vmovsd    %xmm1, (%rsp)                                 #1200.15
..LN584:
                                # LOE bl
..B1.127:                       # Preds ..B1.128 ..B1.126
..L168:         # optimization report
                # %s was not vectorized: vector dependence prevents vectorization%s
                # VECTOR TRIP COUNT IS KNOWN CONSTANT
..___tag_value_main.169:
..LN585:
	.loc    1  1204  is_stmt 1
#       force_sorted()
        call      force_sorted()                             #1204.5
..___tag_value_main.170:
..LN586:
                                # LOE bl
..B1.128:                       # Preds ..B1.127
..LN587:
	.loc    1  1203  is_stmt 1
        incb      %bl                                           #1203.29
..LN588:
        cmpb      $100, %bl                                     #1203.23
..LN589:
        jl        ..B1.127      # Prob 99%                      #1203.23
..LN590:
                                # LOE bl
..B1.129:                       # Preds ..B1.128
..LN591:
	.loc    1  91  is_stmt 1
        xorl      %esi, %esi                                    #91.3
..LN592:
        lea       1296(%rsp), %rdi                              #91.3
..LN593:
#       gettimeofday(timeval *, timezone *)
        call      gettimeofday                                  #91.3
..LN594:
                                # LOE
..B1.130:                       # Preds ..B1.129
..LN595:
	.loc    1  1207  is_stmt 1
        vxorpd    %xmm0, %xmm0, %xmm0                           #1207.3
..LN596:
        vxorpd    %xmm1, %xmm1, %xmm1                           #1207.3
..LN597:
        vcvtsi2sdq 1304(%rsp), %xmm0, %xmm0                     #1207.3
..LN598:
        vcvtsi2sdq 1296(%rsp), %xmm1, %xmm1                     #1207.3
..LN599:
        vfmadd231sd .L_2il0floatpacket.36(%rip), %xmm0, %xmm1   #1207.3
..LN600:
        movl      $.L_2__STRING.1, %esi                         #1207.3
..LN601:
        movl      $.L_2__STRING.10, %ecx                        #1207.3
..LN602:
        movl      $1, %eax                                      #1207.3
..LN603:
        movq      stderr(%rip), %rdi                            #1207.3
..LN604:
        movl      particle_number(%rip), %edx                   #1207.3
..LN605:
        vsubsd    (%rsp), %xmm1, %xmm0                          #1207.3
..LN606:
#       fprintf(FILE *, const char *, ...)
        call      fprintf                                       #1207.3
..LN607:
                                # LOE
..B1.131:                       # Preds ..B1.130
..LN608:
	.loc    1  91  is_stmt 1
        xorl      %esi, %esi                                    #91.3
..LN609:
        lea       1312(%rsp), %rdi                              #91.3
..LN610:
#       gettimeofday(timeval *, timezone *)
        call      gettimeofday                                  #91.3
..LN611:
                                # LOE
..B1.132:                       # Preds ..B1.131
..LN612:
	.loc    1  92  is_stmt 1
        vxorpd    %xmm0, %xmm0, %xmm0                           #92.21
..LN613:
        vxorpd    %xmm1, %xmm1, %xmm1                           #92.10
..LN614:
        vcvtsi2sdq 1320(%rsp), %xmm0, %xmm0                     #92.21
..LN615:
        vcvtsi2sdq 1312(%rsp), %xmm1, %xmm1                     #92.10
..LN616:
	.loc    1  1200  is_stmt 1
        vfmadd231sd .L_2il0floatpacket.36(%rip), %xmm0, %xmm1   #1200.15
..LN617:
	.loc    1  1203  is_stmt 1
        xorb      %bl, %bl                                      #1203.14
..LN618:
	.loc    1  1200  is_stmt 1
        vmovsd    %xmm1, (%rsp)                                 #1200.15
..LN619:
                                # LOE bl
..B1.133:                       # Preds ..B1.134 ..B1.132
..L171:         # optimization report
                # %s was not vectorized: vector dependence prevents vectorization%s
                # VECTOR TRIP COUNT IS KNOWN CONSTANT
..___tag_value_main.172:
..LN620:
	.loc    1  1204  is_stmt 1
#       force_sorted_swp()
        call      force_sorted_swp()                         #1204.5
..___tag_value_main.173:
..LN621:
                                # LOE bl
..B1.134:                       # Preds ..B1.133
..LN622:
	.loc    1  1203  is_stmt 1
        incb      %bl                                           #1203.29
..LN623:
        cmpb      $100, %bl                                     #1203.23
..LN624:
        jl        ..B1.133      # Prob 99%                      #1203.23
..LN625:
                                # LOE bl
..B1.135:                       # Preds ..B1.134
..LN626:
	.loc    1  91  is_stmt 1
        xorl      %esi, %esi                                    #91.3
..LN627:
        lea       1328(%rsp), %rdi                              #91.3
..LN628:
#       gettimeofday(timeval *, timezone *)
        call      gettimeofday                                  #91.3
..LN629:
                                # LOE
..B1.136:                       # Preds ..B1.135
..LN630:
	.loc    1  1207  is_stmt 1
        vxorpd    %xmm0, %xmm0, %xmm0                           #1207.3
..LN631:
        vxorpd    %xmm1, %xmm1, %xmm1                           #1207.3
..LN632:
        vcvtsi2sdq 1336(%rsp), %xmm0, %xmm0                     #1207.3
..LN633:
        vcvtsi2sdq 1328(%rsp), %xmm1, %xmm1                     #1207.3
..LN634:
        vfmadd231sd .L_2il0floatpacket.36(%rip), %xmm0, %xmm1   #1207.3
..LN635:
        movl      $.L_2__STRING.1, %esi                         #1207.3
..LN636:
        movl      $.L_2__STRING.11, %ecx                        #1207.3
..LN637:
        movl      $1, %eax                                      #1207.3
..LN638:
        movq      stderr(%rip), %rdi                            #1207.3
..LN639:
        movl      particle_number(%rip), %edx                   #1207.3
..LN640:
        vsubsd    (%rsp), %xmm1, %xmm0                          #1207.3
..LN641:
#       fprintf(FILE *, const char *, ...)
        call      fprintf                                       #1207.3
..LN642:
                                # LOE
..B1.137:                       # Preds ..B1.136
..LN643:
	.loc    1  91  is_stmt 1
        xorl      %esi, %esi                                    #91.3
..LN644:
        lea       1344(%rsp), %rdi                              #91.3
..LN645:
#       gettimeofday(timeval *, timezone *)
        call      gettimeofday                                  #91.3
..LN646:
                                # LOE
..B1.138:                       # Preds ..B1.137
..LN647:
	.loc    1  92  is_stmt 1
        vxorpd    %xmm0, %xmm0, %xmm0                           #92.21
..LN648:
        vxorpd    %xmm1, %xmm1, %xmm1                           #92.10
..LN649:
        vcvtsi2sdq 1352(%rsp), %xmm0, %xmm0                     #92.21
..LN650:
        vcvtsi2sdq 1344(%rsp), %xmm1, %xmm1                     #92.10
..LN651:
	.loc    1  1200  is_stmt 1
        vfmadd231sd .L_2il0floatpacket.36(%rip), %xmm0, %xmm1   #1200.15
..LN652:
	.loc    1  1203  is_stmt 1
        xorb      %bl, %bl                                      #1203.14
..LN653:
	.loc    1  1200  is_stmt 1
        vmovsd    %xmm1, (%rsp)                                 #1200.15
..LN654:
                                # LOE bl
..B1.139:                       # Preds ..B1.140 ..B1.138
..L174:         # optimization report
                # %s was not vectorized: vector dependence prevents vectorization%s
                # VECTOR TRIP COUNT IS KNOWN CONSTANT
..___tag_value_main.175:
..LN655:
	.loc    1  1204  is_stmt 1
#       force_sorted_intrin()
        call      force_sorted_intrin()                      #1204.5
..___tag_value_main.176:
..LN656:
                                # LOE bl
..B1.140:                       # Preds ..B1.139
..LN657:
	.loc    1  1203  is_stmt 1
        incb      %bl                                           #1203.29
..LN658:
        cmpb      $100, %bl                                     #1203.23
..LN659:
        jl        ..B1.139      # Prob 99%                      #1203.23
..LN660:
                                # LOE bl
..B1.141:                       # Preds ..B1.140
..LN661:
	.loc    1  91  is_stmt 1
        xorl      %esi, %esi                                    #91.3
..LN662:
        lea       1360(%rsp), %rdi                              #91.3
..LN663:
#       gettimeofday(timeval *, timezone *)
        call      gettimeofday                                  #91.3
..LN664:
                                # LOE
..B1.142:                       # Preds ..B1.141
..LN665:
	.loc    1  1207  is_stmt 1
        vxorpd    %xmm0, %xmm0, %xmm0                           #1207.3
..LN666:
        vxorpd    %xmm1, %xmm1, %xmm1                           #1207.3
..LN667:
        vcvtsi2sdq 1368(%rsp), %xmm0, %xmm0                     #1207.3
..LN668:
        vcvtsi2sdq 1360(%rsp), %xmm1, %xmm1                     #1207.3
..LN669:
        vfmadd231sd .L_2il0floatpacket.36(%rip), %xmm0, %xmm1   #1207.3
..LN670:
        movl      $.L_2__STRING.1, %esi                         #1207.3
..LN671:
        movl      $.L_2__STRING.12, %ecx                        #1207.3
..LN672:
        movl      $1, %eax                                      #1207.3
..LN673:
        movq      stderr(%rip), %rdi                            #1207.3
..LN674:
        movl      particle_number(%rip), %edx                   #1207.3
..LN675:
        vsubsd    (%rsp), %xmm1, %xmm0                          #1207.3
..LN676:
#       fprintf(FILE *, const char *, ...)
        call      fprintf                                       #1207.3
..LN677:
                                # LOE
..B1.143:                       # Preds ..B1.142
..LN678:
	.loc    1  91  is_stmt 1
        xorl      %esi, %esi                                    #91.3
..LN679:
        lea       1376(%rsp), %rdi                              #91.3
..LN680:
#       gettimeofday(timeval *, timezone *)
        call      gettimeofday                                  #91.3
..LN681:
                                # LOE
..B1.144:                       # Preds ..B1.143
..LN682:
	.loc    1  92  is_stmt 1
        vxorpd    %xmm0, %xmm0, %xmm0                           #92.21
..LN683:
        vxorpd    %xmm1, %xmm1, %xmm1                           #92.10
..LN684:
        vcvtsi2sdq 1384(%rsp), %xmm0, %xmm0                     #92.21
..LN685:
        vcvtsi2sdq 1376(%rsp), %xmm1, %xmm1                     #92.10
..LN686:
	.loc    1  1200  is_stmt 1
        vfmadd231sd .L_2il0floatpacket.36(%rip), %xmm0, %xmm1   #1200.15
..LN687:
	.loc    1  1203  is_stmt 1
        xorb      %bl, %bl                                      #1203.14
..LN688:
	.loc    1  1200  is_stmt 1
        vmovsd    %xmm1, (%rsp)                                 #1200.15
..LN689:
                                # LOE bl
..B1.145:                       # Preds ..B1.146 ..B1.144
..L177:         # optimization report
                # %s was not vectorized: vector dependence prevents vectorization%s
                # VECTOR TRIP COUNT IS KNOWN CONSTANT
..___tag_value_main.178:
..LN690:
	.loc    1  1204  is_stmt 1
#       force_sorted_intrin_mat_transp()
        call      force_sorted_intrin_mat_transp()           #1204.5
..___tag_value_main.179:
..LN691:
                                # LOE bl
..B1.146:                       # Preds ..B1.145
..LN692:
	.loc    1  1203  is_stmt 1
        incb      %bl                                           #1203.29
..LN693:
        cmpb      $100, %bl                                     #1203.23
..LN694:
        jl        ..B1.145      # Prob 99%                      #1203.23
..LN695:
                                # LOE bl
..B1.147:                       # Preds ..B1.146
..LN696:
	.loc    1  91  is_stmt 1
        xorl      %esi, %esi                                    #91.3
..LN697:
        lea       1392(%rsp), %rdi                              #91.3
..LN698:
#       gettimeofday(timeval *, timezone *)
        call      gettimeofday                                  #91.3
..LN699:
                                # LOE
..B1.148:                       # Preds ..B1.147
..LN700:
	.loc    1  1207  is_stmt 1
        vxorpd    %xmm0, %xmm0, %xmm0                           #1207.3
..LN701:
        vxorpd    %xmm1, %xmm1, %xmm1                           #1207.3
..LN702:
        vcvtsi2sdq 1400(%rsp), %xmm0, %xmm0                     #1207.3
..LN703:
        vcvtsi2sdq 1392(%rsp), %xmm1, %xmm1                     #1207.3
..LN704:
        vfmadd231sd .L_2il0floatpacket.36(%rip), %xmm0, %xmm1   #1207.3
..LN705:
        movl      $.L_2__STRING.1, %esi                         #1207.3
..LN706:
        movl      $.L_2__STRING.13, %ecx                        #1207.3
..LN707:
        movl      $1, %eax                                      #1207.3
..LN708:
        movq      stderr(%rip), %rdi                            #1207.3
..LN709:
        movl      particle_number(%rip), %edx                   #1207.3
..LN710:
        vsubsd    (%rsp), %xmm1, %xmm0                          #1207.3
..LN711:
#       fprintf(FILE *, const char *, ...)
        call      fprintf                                       #1207.3
..LN712:
                                # LOE
..B1.149:                       # Preds ..B1.148
..LN713:
	.loc    1  91  is_stmt 1
        xorl      %esi, %esi                                    #91.3
..LN714:
        lea       1408(%rsp), %rdi                              #91.3
..LN715:
#       gettimeofday(timeval *, timezone *)
        call      gettimeofday                                  #91.3
..LN716:
                                # LOE
..B1.150:                       # Preds ..B1.149
..LN717:
	.loc    1  92  is_stmt 1
        vxorpd    %xmm0, %xmm0, %xmm0                           #92.21
..LN718:
        vxorpd    %xmm1, %xmm1, %xmm1                           #92.10
..LN719:
        vcvtsi2sdq 1416(%rsp), %xmm0, %xmm0                     #92.21
..LN720:
        vcvtsi2sdq 1408(%rsp), %xmm1, %xmm1                     #92.10
..LN721:
	.loc    1  1200  is_stmt 1
        vfmadd231sd .L_2il0floatpacket.36(%rip), %xmm0, %xmm1   #1200.15
..LN722:
	.loc    1  1203  is_stmt 1
        xorb      %bl, %bl                                      #1203.14
..LN723:
	.loc    1  1200  is_stmt 1
        vmovsd    %xmm1, (%rsp)                                 #1200.15
..LN724:
                                # LOE bl
..B1.151:                       # Preds ..B1.152 ..B1.150
..L180:         # optimization report
                # %s was not vectorized: vector dependence prevents vectorization%s
                # VECTOR TRIP COUNT IS KNOWN CONSTANT
..___tag_value_main.181:
..LN725:
	.loc    1  1204  is_stmt 1
#       force_sorted_swp_intrin()
        call      force_sorted_swp_intrin()                  #1204.5
..___tag_value_main.182:
..LN726:
                                # LOE bl
..B1.152:                       # Preds ..B1.151
..LN727:
	.loc    1  1203  is_stmt 1
        incb      %bl                                           #1203.29
..LN728:
        cmpb      $100, %bl                                     #1203.23
..LN729:
        jl        ..B1.151      # Prob 99%                      #1203.23
..LN730:
                                # LOE bl
..B1.153:                       # Preds ..B1.152
..LN731:
	.loc    1  91  is_stmt 1
        xorl      %esi, %esi                                    #91.3
..LN732:
        lea       1424(%rsp), %rdi                              #91.3
..LN733:
#       gettimeofday(timeval *, timezone *)
        call      gettimeofday                                  #91.3
..LN734:
                                # LOE
..B1.154:                       # Preds ..B1.153
..LN735:
	.loc    1  1207  is_stmt 1
        vxorpd    %xmm0, %xmm0, %xmm0                           #1207.3
..LN736:
        vxorpd    %xmm1, %xmm1, %xmm1                           #1207.3
..LN737:
        vcvtsi2sdq 1432(%rsp), %xmm0, %xmm0                     #1207.3
..LN738:
        vcvtsi2sdq 1424(%rsp), %xmm1, %xmm1                     #1207.3
..LN739:
        vfmadd231sd .L_2il0floatpacket.36(%rip), %xmm0, %xmm1   #1207.3
..LN740:
        movl      $.L_2__STRING.1, %esi                         #1207.3
..LN741:
        movl      $.L_2__STRING.14, %ecx                        #1207.3
..LN742:
        movl      $1, %eax                                      #1207.3
..LN743:
        movq      stderr(%rip), %rdi                            #1207.3
..LN744:
        movl      particle_number(%rip), %edx                   #1207.3
..LN745:
        vsubsd    (%rsp), %xmm1, %xmm0                          #1207.3
..LN746:
#       fprintf(FILE *, const char *, ...)
        call      fprintf                                       #1207.3
..LN747:
                                # LOE
..B1.155:                       # Preds ..B1.154
..LN748:
	.loc    1  91  is_stmt 1
        xorl      %esi, %esi                                    #91.3
..LN749:
        lea       1440(%rsp), %rdi                              #91.3
..LN750:
#       gettimeofday(timeval *, timezone *)
        call      gettimeofday                                  #91.3
..LN751:
                                # LOE
..B1.156:                       # Preds ..B1.155
..LN752:
	.loc    1  92  is_stmt 1
        vxorpd    %xmm0, %xmm0, %xmm0                           #92.21
..LN753:
        vxorpd    %xmm1, %xmm1, %xmm1                           #92.10
..LN754:
        vcvtsi2sdq 1448(%rsp), %xmm0, %xmm0                     #92.21
..LN755:
        vcvtsi2sdq 1440(%rsp), %xmm1, %xmm1                     #92.10
..LN756:
	.loc    1  1200  is_stmt 1
        vfmadd231sd .L_2il0floatpacket.36(%rip), %xmm0, %xmm1   #1200.15
..LN757:
	.loc    1  1203  is_stmt 1
        xorb      %bl, %bl                                      #1203.14
..LN758:
	.loc    1  1200  is_stmt 1
        vmovsd    %xmm1, (%rsp)                                 #1200.15
..LN759:
                                # LOE bl
..B1.157:                       # Preds ..B1.158 ..B1.156
..L183:         # optimization report
                # %s was not vectorized: vector dependence prevents vectorization%s
                # VECTOR TRIP COUNT IS KNOWN CONSTANT
..___tag_value_main.184:
..LN760:
	.loc    1  1204  is_stmt 1
#       force_sorted_swp_intrin_mat_transp()
        call      force_sorted_swp_intrin_mat_transp()       #1204.5
..___tag_value_main.185:
..LN761:
                                # LOE bl
..B1.158:                       # Preds ..B1.157
..LN762:
	.loc    1  1203  is_stmt 1
        incb      %bl                                           #1203.29
..LN763:
        cmpb      $100, %bl                                     #1203.23
..LN764:
        jl        ..B1.157      # Prob 99%                      #1203.23
..LN765:
                                # LOE bl
..B1.159:                       # Preds ..B1.158
..LN766:
	.loc    1  91  is_stmt 1
        xorl      %esi, %esi                                    #91.3
..LN767:
        lea       1456(%rsp), %rdi                              #91.3
..LN768:
#       gettimeofday(timeval *, timezone *)
        call      gettimeofday                                  #91.3
..LN769:
                                # LOE
..B1.160:                       # Preds ..B1.159
..LN770:
	.loc    1  1207  is_stmt 1
        vxorpd    %xmm0, %xmm0, %xmm0                           #1207.3
..LN771:
        vxorpd    %xmm1, %xmm1, %xmm1                           #1207.3
..LN772:
        vcvtsi2sdq 1464(%rsp), %xmm0, %xmm0                     #1207.3
..LN773:
        vcvtsi2sdq 1456(%rsp), %xmm1, %xmm1                     #1207.3
..LN774:
        vfmadd231sd .L_2il0floatpacket.36(%rip), %xmm0, %xmm1   #1207.3
..LN775:
        movl      $.L_2__STRING.1, %esi                         #1207.3
..LN776:
        movl      $.L_2__STRING.15, %ecx                        #1207.3
..LN777:
        movl      $1, %eax                                      #1207.3
..LN778:
        movq      stderr(%rip), %rdi                            #1207.3
..LN779:
        movl      particle_number(%rip), %edx                   #1207.3
..LN780:
        vsubsd    (%rsp), %xmm1, %xmm0                          #1207.3
..LN781:
#       fprintf(FILE *, const char *, ...)
        call      fprintf                                       #1207.3
..LN782:
                                # LOE
..B1.161:                       # Preds ..B1.160
..LN783:
	.loc    1  39  is_stmt 1
        xorl      %ebx, %ebx                                    #39.12
..LN784:
        xorl      %edx, %edx                                    #39.12
..LN785:
        movslq    particle_number(%rip), %rcx                   #39.17
..LN786:
        xorl      %eax, %eax                                    #39.12
..LN787:
        testq     %rcx, %rcx                                    #39.17
..LN788:
        jle       ..B1.165      # Prob 10%                      #39.17
        .align    16,0x90
..LN789:
                                # LOE rax rdx rcx rbx
..B1.163:                       # Preds ..B1.161 ..B1.163
..L186:         # optimization report
                # LOOP WAS UNROLLED BY 1
                # %s was not vectorized: vectorization possible but seems inefficient. Use vector always directive or -vec-threshold0 to override 
                # VECTORIZATION SPEEDUP COEFFECIENT 0.611328
                # VECTOR TRIP COUNT IS ESTIMATED CONSTANT
                # VECTOR LENGTH 2
..LN790:
        incq      %rbx                                          #39.33
..LN791:
	.loc    1  40  is_stmt 1
        movq      q(%rax), %rsi                                 #40.15
..LN792:
	.loc    1  41  is_stmt 1
        movq      8+q(%rax), %rdi                               #41.15
..LN793:
	.loc    1  42  is_stmt 1
        movq      16+q(%rax), %r8                               #42.15
..LN794:
	.loc    1  43  is_stmt 1
        movq      p(%rax), %r9                                  #43.16
..LN795:
	.loc    1  44  is_stmt 1
        movq      8+p(%rax), %r10                               #44.16
..LN796:
	.loc    1  45  is_stmt 1
        movq      16+p(%rax), %r11                              #45.16
..LN797:
	.loc    1  39  is_stmt 1
        addq      $32, %rax                                     #39.33
..LN798:
	.loc    1  40  is_stmt 1
        movq      %rsi, z(%rdx)                                 #40.5
..LN799:
	.loc    1  41  is_stmt 1
        movq      %rdi, 8+z(%rdx)                               #41.5
..LN800:
	.loc    1  42  is_stmt 1
        movq      %r8, 16+z(%rdx)                               #42.5
..LN801:
	.loc    1  43  is_stmt 1
        movq      %r9, 32+z(%rdx)                               #43.5
..LN802:
	.loc    1  44  is_stmt 1
        movq      %r10, 40+z(%rdx)                              #44.5
..LN803:
	.loc    1  45  is_stmt 1
        movq      %r11, 48+z(%rdx)                              #45.5
..LN804:
	.loc    1  39  is_stmt 1
        addq      $64, %rdx                                     #39.33
..LN805:
        cmpq      %rcx, %rbx                                    #39.17
..LN806:
        jl        ..B1.163      # Prob 99%                      #39.17
..LN807:
                                # LOE rax rdx rcx rbx
..B1.165:                       # Preds ..B1.163 ..B1.161
..LN808:
	.loc    1  91  is_stmt 1
        xorl      %esi, %esi                                    #91.3
..LN809:
        lea       1472(%rsp), %rdi                              #91.3
..LN810:
#       gettimeofday(timeval *, timezone *)
        call      gettimeofday                                  #91.3
..LN811:
                                # LOE
..B1.166:                       # Preds ..B1.165
..LN812:
	.loc    1  92  is_stmt 1
        vxorpd    %xmm0, %xmm0, %xmm0                           #92.21
..LN813:
        vxorpd    %xmm1, %xmm1, %xmm1                           #92.10
..LN814:
        vcvtsi2sdq 1480(%rsp), %xmm0, %xmm0                     #92.21
..LN815:
        vcvtsi2sdq 1472(%rsp), %xmm1, %xmm1                     #92.10
..LN816:
	.loc    1  1200  is_stmt 1
        vfmadd231sd .L_2il0floatpacket.36(%rip), %xmm0, %xmm1   #1200.15
..LN817:
	.loc    1  1203  is_stmt 1
        xorb      %bl, %bl                                      #1203.14
..LN818:
	.loc    1  1200  is_stmt 1
        vmovsd    %xmm1, (%rsp)                                 #1200.15
..LN819:
                                # LOE bl
..B1.167:                       # Preds ..B1.168 ..B1.166
..L187:         # optimization report
                # %s was not vectorized: vector dependence prevents vectorization%s
                # VECTOR TRIP COUNT IS KNOWN CONSTANT
..___tag_value_main.188:
..LN820:
	.loc    1  1204  is_stmt 1
#       force_sorted_z_swp()
        call      force_sorted_z_swp()                       #1204.5
..___tag_value_main.189:
..LN821:
                                # LOE bl
..B1.168:                       # Preds ..B1.167
..LN822:
	.loc    1  1203  is_stmt 1
        incb      %bl                                           #1203.29
..LN823:
        cmpb      $100, %bl                                     #1203.23
..LN824:
        jl        ..B1.167      # Prob 99%                      #1203.23
..LN825:
                                # LOE bl
..B1.169:                       # Preds ..B1.168
..LN826:
	.loc    1  91  is_stmt 1
        xorl      %esi, %esi                                    #91.3
..LN827:
        lea       1488(%rsp), %rdi                              #91.3
..LN828:
#       gettimeofday(timeval *, timezone *)
        call      gettimeofday                                  #91.3
..LN829:
                                # LOE
..B1.170:                       # Preds ..B1.169
..LN830:
	.loc    1  1207  is_stmt 1
        vxorpd    %xmm1, %xmm1, %xmm1                           #1207.3
..LN831:
        vxorpd    %xmm2, %xmm2, %xmm2                           #1207.3
..LN832:
        vcvtsi2sdq 1496(%rsp), %xmm1, %xmm1                     #1207.3
..LN833:
        vcvtsi2sdq 1488(%rsp), %xmm2, %xmm2                     #1207.3
..LN834:
        vmovsd    .L_2il0floatpacket.36(%rip), %xmm0            #1207.3
..LN835:
        movl      $.L_2__STRING.1, %esi                         #1207.3
..LN836:
        vfmadd213sd %xmm2, %xmm1, %xmm0                         #1207.3
..LN837:
        movl      $.L_2__STRING.16, %ecx                        #1207.3
..LN838:
        movl      $1, %eax                                      #1207.3
..LN839:
        vsubsd    (%rsp), %xmm0, %xmm0                          #1207.3
..LN840:
        movq      stderr(%rip), %rdi                            #1207.3
..LN841:
        movl      particle_number(%rip), %edx                   #1207.3
..LN842:
#       fprintf(FILE *, const char *, ...)
        call      fprintf                                       #1207.3
..LN843:
                                # LOE
..B1.171:                       # Preds ..B1.170
..LN844:
	.loc    1  51  is_stmt 1
        xorl      %ebx, %ebx                                    #51.12
..LN845:
        xorl      %edx, %edx                                    #51.12
..LN846:
        movslq    particle_number(%rip), %rcx                   #51.17
..LN847:
        xorl      %eax, %eax                                    #51.12
..LN848:
        testq     %rcx, %rcx                                    #51.17
..LN849:
        jle       ..B1.175      # Prob 10%                      #51.17
        .align    16,0x90
..LN850:
                                # LOE rax rdx rcx rbx
..B1.173:                       # Preds ..B1.171 ..B1.173
..L190:         # optimization report
                # LOOP WAS UNROLLED BY 1
                # %s was not vectorized: vectorization possible but seems inefficient. Use vector always directive or -vec-threshold0 to override 
                # VECTORIZATION SPEEDUP COEFFECIENT 0.611328
                # VECTOR TRIP COUNT IS ESTIMATED CONSTANT
                # VECTOR LENGTH 2
..LN851:
        incq      %rbx                                          #51.33
..LN852:
	.loc    1  52  is_stmt 1
        movq      z(%rax), %rsi                                 #52.15
..LN853:
	.loc    1  53  is_stmt 1
        movq      8+z(%rax), %rdi                               #53.15
..LN854:
	.loc    1  54  is_stmt 1
        movq      16+z(%rax), %r8                               #54.15
..LN855:
	.loc    1  55  is_stmt 1
        movq      32+z(%rax), %r9                               #55.15
..LN856:
	.loc    1  56  is_stmt 1
        movq      40+z(%rax), %r10                              #56.15
..LN857:
	.loc    1  57  is_stmt 1
        movq      48+z(%rax), %r11                              #57.15
..LN858:
	.loc    1  51  is_stmt 1
        addq      $64, %rax                                     #51.33
..LN859:
	.loc    1  52  is_stmt 1
        movq      %rsi, q(%rdx)                                 #52.5
..LN860:
	.loc    1  53  is_stmt 1
        movq      %rdi, 8+q(%rdx)                               #53.5
..LN861:
	.loc    1  54  is_stmt 1
        movq      %r8, 16+q(%rdx)                               #54.5
..LN862:
	.loc    1  55  is_stmt 1
        movq      %r9, p(%rdx)                                  #55.5
..LN863:
	.loc    1  56  is_stmt 1
        movq      %r10, 8+p(%rdx)                               #56.5
..LN864:
	.loc    1  57  is_stmt 1
        movq      %r11, 16+p(%rdx)                              #57.5
..LN865:
	.loc    1  51  is_stmt 1
        addq      $32, %rdx                                     #51.33
..LN866:
        cmpq      %rcx, %rbx                                    #51.17
..LN867:
        jl        ..B1.173      # Prob 99%                      #51.17
..LN868:
                                # LOE rax rdx rcx rbx
..B1.175:                       # Preds ..B1.173 ..B1.171
..LN869:
	.loc    1  1299  is_stmt 1
        xorl      %eax, %eax                                    #1299.1
..LN870:
	.loc    1  1299  epilogue_begin  is_stmt 1
        addq      $1624, %rsp                                   #1299.1
	.cfi_restore 3
..LN871:
        popq      %rbx                                          #1299.1
	.cfi_restore 15
..LN872:
        popq      %r15                                          #1299.1
	.cfi_restore 14
..LN873:
        popq      %r14                                          #1299.1
	.cfi_restore 13
..LN874:
        popq      %r13                                          #1299.1
	.cfi_restore 12
..LN875:
        popq      %r12                                          #1299.1
..LN876:
        movq      %rbp, %rsp                                    #1299.1
..LN877:
        popq      %rbp                                          #1299.1
	.cfi_def_cfa 7, 8
	.cfi_restore 6
..LN878:
        ret                                                     #1299.1
	.cfi_def_cfa 6, 16
	.cfi_escape 0x10, 0x03, 0x0e, 0x38, 0x1c, 0x0d, 0x80, 0xff, 0xff, 0xff, 0x1a, 0x0d, 0xd8, 0xff, 0xff, 0xff, 0x22
	.cfi_offset 6, -16
	.cfi_escape 0x10, 0x0c, 0x0e, 0x38, 0x1c, 0x0d, 0x80, 0xff, 0xff, 0xff, 0x1a, 0x0d, 0xf8, 0xff, 0xff, 0xff, 0x22
	.cfi_escape 0x10, 0x0d, 0x0e, 0x38, 0x1c, 0x0d, 0x80, 0xff, 0xff, 0xff, 0x1a, 0x0d, 0xf0, 0xff, 0xff, 0xff, 0x22
	.cfi_escape 0x10, 0x0e, 0x0e, 0x38, 0x1c, 0x0d, 0x80, 0xff, 0xff, 0xff, 0x1a, 0x0d, 0xe8, 0xff, 0xff, 0xff, 0x22
	.cfi_escape 0x10, 0x0f, 0x0e, 0x38, 0x1c, 0x0d, 0x80, 0xff, 0xff, 0xff, 0x1a, 0x0d, 0xe0, 0xff, 0xff, 0xff, 0x22
..LN879:
                                # LOE
..___tag_value_main.33:
..B1.176:                       # Preds ..B1.46                 # Infreq
        movq      %rax, (%rsp)                                  #276.20
..LN880:
                                # LOE
..B1.177:                       # Preds ..B1.176                # Infreq
..LN881:
	.loc    4  276  is_stmt 1
        xorl      %eax, %eax                                    #276.20
..LN882:
        movq      (%rsp), %rdi                                  #276.20
..___tag_value_main.206:
..LN883:
        call      __cxa_call_unexpected                         #276.20
..___tag_value_main.207:
..LN884:
                                # LOE
..B1.179:                       # Preds ..B1.312 ..B1.308 ..B1.318 ..B1.187 ..B1.177
                                #                               # Infreq
..LN885:
	.loc    3  499  is_stmt 1
        xorl      %eax, %eax                                    #499.7
..LN886:
        movq      (%rsp), %rdi                                  #499.7
..___tag_value_main.208:
..LN887:
        call      __cxa_call_unexpected                         #499.7
..___tag_value_main.209:
..LN888:
                                # LOE
..B1.180:                       # Preds ..B1.399 ..B1.351 ..B1.268 ..B1.220 ..B1.179
                                #                               # Infreq
..LN889:
        movq      (%rsp), %rdi                                  #499.7
..___tag_value_main.210:
..LN890:
        call      _Unwind_Resume                                #499.7
..___tag_value_main.211:
..LN891:
                                # LOE
..___tag_value_main.32:
..B1.187:                       # Preds ..B1.198                # Infreq
..LN892:
	.loc    4  276  is_stmt 1
        lea       264(%rsp), %rdi                               #276.22
..LN893:
	.loc    1  1216  is_stmt 1
        movq      %r14, (%rdi)                                  #1216.7
..___tag_value_main.212:
..LN894:
	.loc    4  276  is_stmt 1
#       std::ios_base::~ios_base(std::ios_base *const)
        call      std::ios_base::~ios_base()                            #276.22
..___tag_value_main.213:
..LN895:
        jmp       ..B1.179      # Prob 100%                     #276.22
..LN896:
                                # LOE
..___tag_value_main.54:
..B1.189:                       # Preds ..B1.187                # Infreq
        movq      %rax, (%rsp)                                  #276.20
..LN897:
                                # LOE
..B1.190:                       # Preds ..B1.189                # Infreq
..LN898:
        xorl      %eax, %eax                                    #276.20
..LN899:
        movq      (%rsp), %rdi                                  #276.20
..___tag_value_main.214:
..LN900:
        call      __cxa_call_unexpected                         #276.20
..___tag_value_main.215:
..LN901:
                                # LOE
..B1.191:                       # Preds ..B1.190                # Infreq
..LN902:
        movq      (%rsp), %rdi                                  #276.20
..___tag_value_main.216:
..LN903:
        call      _Unwind_Resume                                #276.20
..___tag_value_main.217:
..LN904:
                                # LOE
..___tag_value_main.25:
..___tag_value_main.41:
..___tag_value_main.53:
..B1.194:                       # Preds ..B1.41                 # Infreq
        movq      %rax, (%rsp)                                  #220.7
..LN905:
                                # LOE r14
..B1.195:                       # Preds ..B1.210 ..B1.194       # Infreq
..LN906:
	.loc    3  220  is_stmt 1
..LN907:
	.loc    6  198  is_stmt 1
        lea       80(%rsp), %rdi                                #198.9
..LN908:
	.loc    1  1216  is_stmt 1
        movq      vtable for std::basic_streambuf<char, std::char_traits<char> >+16, -56(%rdi) #1216.7
..LN909:
	.loc    6  198  is_stmt 1
#       std::locale::~locale(std::locale *)
        call      std::locale::~locale()                              #198.9
..LN910:
                                # LOE r14
..B1.196:                       # Preds ..B1.195                # Infreq
..LN911:
	.loc    3  220  is_stmt 1
        xorl      %eax, %eax                                    #220.7
..LN912:
        movq      (%rsp), %rdi                                  #220.7
..___tag_value_main.218:
..LN913:
        call      __cxa_call_unexpected                         #220.7
..___tag_value_main.219:
..LN914:
                                # LOE r14
..B1.198:                       # Preds ..B1.196 ..B1.208       # Infreq
..LN915:
	.loc    5  104  is_stmt 1
        movq      8+VTT for std::basic_ifstream<char, std::char_traits<char> >(%rip), %rax #104.7
..LN916:
        movq      16+VTT for std::basic_ifstream<char, std::char_traits<char> >(%rip), %rdx #104.7
..LN917:
	.loc    1  1216  is_stmt 1
        movq      %rax, 8(%rsp)                                 #1216.7
..LN918:
	.loc    5  104  is_stmt 1
        movq      -24(%rax), %rcx                               #104.7
..LN919:
        movq      %rdx, 8(%rsp,%rcx)                            #104.7
..LN920:
	.loc    1  1216  is_stmt 1
        movq      $0, 16(%rsp)                                  #1216.7
..LN921:
        jmp       ..B1.187      # Prob 100%                     #1216.7
..LN922:
                                # LOE r14
..___tag_value_main.34:
..___tag_value_main.59:
..___tag_value_main.50:
..B1.208:                       # Preds ..B1.196                # Infreq
        movq      %rax, (%rsp)                                  #499.7
        jmp       ..B1.198      # Prob 100%                     #499.7
..LN923:
                                # LOE r14
..___tag_value_main.23:
..B1.209:                       # Preds ..B1.39                 # Infreq
        movq      %rax, (%rsp)                                  #220.7
..LN924:
                                # LOE r14
..B1.210:                       # Preds ..B1.209                # Infreq
..LN925:
	.loc    3  220  is_stmt 1
        lea       128(%rsp), %rdi                               #220.7
..___tag_value_main.220:
..LN926:
#       std::__basic_file<char>::~__basic_file(std::__basic_file<char> *)
        call      std::__basic_file<char>::~__basic_file()                    #220.7
..___tag_value_main.221:
..LN927:
        jmp       ..B1.195      # Prob 100%                     #220.7
..LN928:
                                # LOE r14
..___tag_value_main.13:
..B1.212:                       # Preds ..B1.37 ..B1.35 ..B1.33 ..B1.31 # Infreq
        movq      %rax, (%rsp)                                  #1212.33
..LN929:
                                # LOE r14
..B1.213:                       # Preds ..B1.212                # Infreq
..LN930:
	.loc    1  1212  is_stmt 1
..LN931:
	.loc    3  499  is_stmt 1
        movq      VTT for std::basic_ifstream<char, std::char_traits<char> >(%rip), %rax #499.7
..LN932:
	.loc    3  220  is_stmt 1
        lea       24(%rsp), %rdi                                #220.15
..LN933:
	.loc    3  499  is_stmt 1
        movq      24+VTT for std::basic_ifstream<char, std::char_traits<char> >(%rip), %rdx #499.7
..LN934:
	.loc    1  1212  is_stmt 1
        movq      %rax, -16(%rdi)                               #1212.33
..LN935:
	.loc    3  499  is_stmt 1
        movq      -24(%rax), %rcx                               #499.7
..LN936:
        movq      %rdx, 8(%rsp,%rcx)                            #499.7
..LN937:
	.loc    1  1212  is_stmt 1
        movq      vtable for std::basic_filebuf<char, std::char_traits<char> >+16, (%rdi) #1212.33
..___tag_value_main.222:
..LN938:
	.loc    3  220  is_stmt 1
#       std::basic_filebuf<char, std::char_traits<char>>::close(std::basic_filebuf<char, std::char_traits<char>> *)
        call      std::basic_filebuf<char, std::char_traits<char> >::close() #220.15
..___tag_value_main.223:
..LN939:
                                # LOE r14
..B1.215:                       # Preds ..B1.213                # Infreq
..LN940:
        lea       128(%rsp), %rdi                               #220.24
..___tag_value_main.224:
..LN941:
#       std::__basic_file<char>::~__basic_file(std::__basic_file<char> *)
        call      std::__basic_file<char>::~__basic_file()                    #220.24
..___tag_value_main.225:
..LN942:
                                # LOE r14
..B1.216:                       # Preds ..B1.215                # Infreq
..LN943:
	.loc    6  198  is_stmt 1
        lea       80(%rsp), %rdi                                #198.9
..LN944:
	.loc    1  1212  is_stmt 1
        movq      vtable for std::basic_streambuf<char, std::char_traits<char> >+16, -56(%rdi) #1212.33
..LN945:
	.loc    6  198  is_stmt 1
#       std::locale::~locale(std::locale *)
        call      std::locale::~locale()                              #198.9
..LN946:
                                # LOE r14
..B1.217:                       # Preds ..B1.216                # Infreq
..LN947:
	.loc    5  104  is_stmt 1
        movq      8+VTT for std::basic_ifstream<char, std::char_traits<char> >(%rip), %rax #104.7
..LN948:
        movq      16+VTT for std::basic_ifstream<char, std::char_traits<char> >(%rip), %rdx #104.7
..LN949:
	.loc    1  1212  is_stmt 1
        movq      %rax, 8(%rsp)                                 #1212.33
..LN950:
	.loc    5  104  is_stmt 1
        movq      -24(%rax), %rcx                               #104.7
..LN951:
        movq      %rdx, 8(%rsp,%rcx)                            #104.7
..LN952:
	.loc    1  1212  is_stmt 1
        movq      $0, 16(%rsp)                                  #1212.33
..LN953:
                                # LOE r14
..B1.220:                       # Preds ..B1.217                # Infreq
..LN954:
	.loc    4  276  is_stmt 1
        lea       264(%rsp), %rdi                               #276.22
..LN955:
	.loc    1  1212  is_stmt 1
        movq      %r14, (%rdi)                                  #1212.33
..___tag_value_main.226:
..LN956:
	.loc    4  276  is_stmt 1
#       std::ios_base::~ios_base(std::ios_base *const)
        call      std::ios_base::~ios_base()                            #276.22
..___tag_value_main.227:
..LN957:
        jmp       ..B1.180      # Prob 100%                     #276.22
..LN958:
                                # LOE
..___tag_value_main.28:
..B1.222:                       # Preds ..B1.220                # Infreq
        movq      %rax, (%rsp)                                  #276.20
..LN959:
                                # LOE
..B1.223:                       # Preds ..B1.222                # Infreq
..LN960:
        xorl      %eax, %eax                                    #276.20
..LN961:
        movq      (%rsp), %rdi                                  #276.20
..___tag_value_main.228:
..LN962:
        call      __cxa_call_unexpected                         #276.20
..___tag_value_main.229:
..LN963:
                                # LOE
..B1.225:                       # Preds ..B1.233 ..B1.223 ..B1.227 # Infreq
..LN964:
	.loc    3  499  is_stmt 1
        xorl      %eax, %eax                                    #499.7
..LN965:
        movq      (%rsp), %rdi                                  #499.7
..___tag_value_main.230:
..LN966:
        call      __cxa_call_unexpected                         #499.7
..___tag_value_main.231:
..LN967:
                                # LOE
..B1.226:                       # Preds ..B1.225                # Infreq
..LN968:
        movq      (%rsp), %rdi                                  #499.7
..___tag_value_main.232:
..LN969:
        call      _Unwind_Resume                                #499.7
..___tag_value_main.233:
..LN970:
                                # LOE
..___tag_value_main.36:
..B1.227:                       # Preds ..B1.223                # Infreq
        movq      %rax, (%rsp)                                  #499.7
        jmp       ..B1.225      # Prob 100%                     #499.7
..LN971:
                                # LOE
..___tag_value_main.27:
..B1.233:                       # Preds ..B1.244                # Infreq
..LN972:
	.loc    4  276  is_stmt 1
        lea       264(%rsp), %rdi                               #276.22
..LN973:
	.loc    1  1212  is_stmt 1
        movq      %r14, (%rdi)                                  #1212.33
..___tag_value_main.234:
..LN974:
	.loc    4  276  is_stmt 1
#       std::ios_base::~ios_base(std::ios_base *const)
        call      std::ios_base::~ios_base()                            #276.22
..___tag_value_main.235:
..LN975:
        jmp       ..B1.225      # Prob 100%                     #276.22
..LN976:
                                # LOE
..___tag_value_main.44:
..B1.235:                       # Preds ..B1.233                # Infreq
        movq      %rax, (%rsp)                                  #276.20
..LN977:
                                # LOE
..B1.236:                       # Preds ..B1.235                # Infreq
..LN978:
        xorl      %eax, %eax                                    #276.20
..LN979:
        movq      (%rsp), %rdi                                  #276.20
..___tag_value_main.236:
..LN980:
        call      __cxa_call_unexpected                         #276.20
..___tag_value_main.237:
..LN981:
                                # LOE
..B1.237:                       # Preds ..B1.236                # Infreq
..LN982:
        movq      (%rsp), %rdi                                  #276.20
..___tag_value_main.238:
..LN983:
        call      _Unwind_Resume                                #276.20
..___tag_value_main.239:
..LN984:
                                # LOE
..___tag_value_main.22:
..___tag_value_main.35:
..___tag_value_main.43:
..B1.240:                       # Preds ..B1.215                # Infreq
        movq      %rax, (%rsp)                                  #220.7
..LN985:
                                # LOE r14
..B1.241:                       # Preds ..B1.256 ..B1.240       # Infreq
..LN986:
	.loc    3  220  is_stmt 1
..LN987:
	.loc    6  198  is_stmt 1
        lea       80(%rsp), %rdi                                #198.9
..LN988:
	.loc    1  1212  is_stmt 1
        movq      vtable for std::basic_streambuf<char, std::char_traits<char> >+16, -56(%rdi) #1212.33
..LN989:
	.loc    6  198  is_stmt 1
#       std::locale::~locale(std::locale *)
        call      std::locale::~locale()                              #198.9
..LN990:
                                # LOE r14
..B1.242:                       # Preds ..B1.241                # Infreq
..LN991:
	.loc    3  220  is_stmt 1
        xorl      %eax, %eax                                    #220.7
..LN992:
        movq      (%rsp), %rdi                                  #220.7
..___tag_value_main.240:
..LN993:
        call      __cxa_call_unexpected                         #220.7
..___tag_value_main.241:
..LN994:
                                # LOE r14
..B1.244:                       # Preds ..B1.242 ..B1.254       # Infreq
..LN995:
	.loc    5  104  is_stmt 1
        movq      8+VTT for std::basic_ifstream<char, std::char_traits<char> >(%rip), %rax #104.7
..LN996:
        movq      16+VTT for std::basic_ifstream<char, std::char_traits<char> >(%rip), %rdx #104.7
..LN997:
	.loc    1  1212  is_stmt 1
        movq      %rax, 8(%rsp)                                 #1212.33
..LN998:
	.loc    5  104  is_stmt 1
        movq      -24(%rax), %rcx                               #104.7
..LN999:
        movq      %rdx, 8(%rsp,%rcx)                            #104.7
..LN1000:
	.loc    1  1212  is_stmt 1
        movq      $0, 16(%rsp)                                  #1212.33
..LN1001:
        jmp       ..B1.233      # Prob 100%                     #1212.33
..LN1002:
                                # LOE r14
..___tag_value_main.29:
..___tag_value_main.51:
..___tag_value_main.40:
..B1.254:                       # Preds ..B1.242                # Infreq
        movq      %rax, (%rsp)                                  #499.7
        jmp       ..B1.244      # Prob 100%                     #499.7
..LN1003:
                                # LOE r14
..___tag_value_main.19:
..B1.255:                       # Preds ..B1.213                # Infreq
        movq      %rax, (%rsp)                                  #220.7
..LN1004:
                                # LOE r14
..B1.256:                       # Preds ..B1.255                # Infreq
..LN1005:
	.loc    3  220  is_stmt 1
        lea       128(%rsp), %rdi                               #220.7
..___tag_value_main.242:
..LN1006:
#       std::__basic_file<char>::~__basic_file(std::__basic_file<char> *)
        call      std::__basic_file<char>::~__basic_file()                    #220.7
..___tag_value_main.243:
..LN1007:
        jmp       ..B1.241      # Prob 100%                     #220.7
..LN1008:
                                # LOE r14
..___tag_value_main.3:
..B1.258:                       # Preds ..B1.30 ..B1.286 ..B1.27 ..B1.26 # Infreq
        movq      %rax, (%rsp)                                  #467.7
..LN1009:
                                # LOE r14
..B1.259:                       # Preds ..B1.258                # Infreq
..LN1010:
	.loc    3  467  is_stmt 1
..LN1011:
	.loc    3  220  is_stmt 1
        lea       24(%rsp), %rdi                                #220.15
..LN1012:
	.loc    1  1212  is_stmt 1
        movq      vtable for std::basic_filebuf<char, std::char_traits<char> >+16, (%rdi) #1212.17
..___tag_value_main.244:
..LN1013:
	.loc    3  220  is_stmt 1
#       std::basic_filebuf<char, std::char_traits<char>>::close(std::basic_filebuf<char, std::char_traits<char>> *)
        call      std::basic_filebuf<char, std::char_traits<char> >::close() #220.15
..___tag_value_main.245:
..LN1014:
                                # LOE r14
..B1.261:                       # Preds ..B1.259                # Infreq
..LN1015:
        lea       128(%rsp), %rdi                               #220.24
..___tag_value_main.246:
..LN1016:
#       std::__basic_file<char>::~__basic_file(std::__basic_file<char> *)
        call      std::__basic_file<char>::~__basic_file()                    #220.24
..___tag_value_main.247:
..LN1017:
                                # LOE r14
..B1.262:                       # Preds ..B1.261                # Infreq
..LN1018:
	.loc    6  198  is_stmt 1
        lea       80(%rsp), %rdi                                #198.9
..LN1019:
	.loc    1  1212  is_stmt 1
        movq      vtable for std::basic_streambuf<char, std::char_traits<char> >+16, -56(%rdi) #1212.17
..LN1020:
	.loc    6  198  is_stmt 1
#       std::locale::~locale(std::locale *)
        call      std::locale::~locale()                              #198.9
..LN1021:
                                # LOE r14
..B1.264:                       # Preds ..B1.262 ..B1.287       # Infreq
..LN1022:
	.loc    5  104  is_stmt 1
        movq      8+VTT for std::basic_ifstream<char, std::char_traits<char> >(%rip), %rax #104.7
..LN1023:
        movq      16+VTT for std::basic_ifstream<char, std::char_traits<char> >(%rip), %rdx #104.7
..LN1024:
	.loc    1  1212  is_stmt 1
        movq      %rax, 8(%rsp)                                 #1212.17
..LN1025:
	.loc    5  104  is_stmt 1
        movq      -24(%rax), %rcx                               #104.7
..LN1026:
        movq      %rdx, 8(%rsp,%rcx)                            #104.7
..LN1027:
	.loc    1  1212  is_stmt 1
        movq      $0, 16(%rsp)                                  #1212.17
..LN1028:
                                # LOE r14
..B1.268:                       # Preds ..B1.288 ..B1.264       # Infreq
..LN1029:
	.loc    4  276  is_stmt 1
        lea       264(%rsp), %rdi                               #276.22
..LN1030:
	.loc    1  1212  is_stmt 1
        movq      %r14, (%rdi)                                  #1212.17
..___tag_value_main.248:
..LN1031:
	.loc    4  276  is_stmt 1
#       std::ios_base::~ios_base(std::ios_base *const)
        call      std::ios_base::~ios_base()                            #276.22
..___tag_value_main.249:
..LN1032:
        jmp       ..B1.180      # Prob 100%                     #276.22
..LN1033:
                                # LOE
..___tag_value_main.9:
..B1.270:                       # Preds ..B1.268                # Infreq
        movq      %rax, (%rsp)                                  #276.20
..LN1034:
                                # LOE
..B1.271:                       # Preds ..B1.280 ..B1.270       # Infreq
..LN1035:
        xorl      %eax, %eax                                    #276.20
..LN1036:
        movq      (%rsp), %rdi                                  #276.20
..___tag_value_main.250:
..LN1037:
        call      __cxa_call_unexpected                         #276.20
..___tag_value_main.251:
..LN1038:
                                # LOE
..B1.272:                       # Preds ..B1.271                # Infreq
..LN1039:
        movq      (%rsp), %rdi                                  #276.20
..___tag_value_main.252:
..LN1040:
        call      _Unwind_Resume                                #276.20
..___tag_value_main.253:
..LN1041:
                                # LOE
..___tag_value_main.11:
..___tag_value_main.14:
..___tag_value_main.8:
..B1.279:                       # Preds ..B1.261                # Infreq
        movq      %rax, (%rsp)                                  #220.7
..LN1042:
                                # LOE
..B1.280:                       # Preds ..B1.284 ..B1.279       # Infreq
..LN1043:
	.loc    3  220  is_stmt 1
..LN1044:
	.loc    6  198  is_stmt 1
        lea       80(%rsp), %rdi                                #198.9
..LN1045:
	.loc    1  1212  is_stmt 1
        movq      vtable for std::basic_streambuf<char, std::char_traits<char> >+16, -56(%rdi) #1212.17
..LN1046:
	.loc    6  198  is_stmt 1
#       std::locale::~locale(std::locale *)
        call      std::locale::~locale()                              #198.9
..LN1047:
        jmp       ..B1.271      # Prob 100%                     #198.9
..LN1048:
                                # LOE
..___tag_value_main.7:
..B1.283:                       # Preds ..B1.259                # Infreq
        movq      %rax, (%rsp)                                  #220.7
..LN1049:
                                # LOE
..B1.284:                       # Preds ..B1.283                # Infreq
..LN1050:
	.loc    3  220  is_stmt 1
        lea       128(%rsp), %rdi                               #220.7
..___tag_value_main.254:
..LN1051:
#       std::__basic_file<char>::~__basic_file(std::__basic_file<char> *)
        call      std::__basic_file<char>::~__basic_file()                    #220.7
..___tag_value_main.255:
..LN1052:
        jmp       ..B1.280      # Prob 100%                     #220.7
..LN1053:
                                # LOE
..B1.286:                       # Preds ..B1.29                 # Infreq
..LN1054:
	.loc    1  1212  is_stmt 1
        movq      8(%rsp), %rax                                 #1212.17
..LN1055:
	.loc    3  541  is_stmt 1
        movq      -24(%rax), %rdx                               #541.4
..LN1056:
        lea       8(%rsp,%rdx), %rdi                            #541.4
..LN1057:
	.loc    4  152  is_stmt 1
        movl      32(%rdi), %esi                                #152.15
..LN1058:
        orl       $4, %esi                                      #152.15
..___tag_value_main.256:
..LN1059:
#       std::basic_ios<char, std::char_traits<char>>::clear(std::basic_ios<char, std::char_traits<char>> *, std::ios_base::iostate)
        call      std::basic_ios<char, std::char_traits<char> >::clear(std::_Ios_Iostate) #152.15
..___tag_value_main.257:
..LN1060:
        jmp       ..B1.31       # Prob 100%                     #152.15
..LN1061:
                                # LOE rbx r12 r13 r14 r15
..___tag_value_main.2:
..B1.287:                       # Preds ..B1.25                 # Infreq
        movq      %rax, (%rsp)                                  #467.7
        jmp       ..B1.264      # Prob 100%                     #467.7
..LN1062:
                                # LOE r14
..___tag_value_main.1:
..B1.288:                       # Preds ..B1.24                 # Infreq
        movq      %rax, (%rsp)                                  #606.7
        jmp       ..B1.268      # Prob 100%                     #606.7
..LN1063:
                                # LOE r14
..___tag_value_main.5:
..B1.298:                       # Preds ..B1.101                # Infreq
..LN1064:
	.loc    5  606  is_stmt 1
..LN1065:
	.loc    1  120  is_stmt 1
        movslq    %r8d, %rdx                                    #120.3
..LN1066:
        cmpq      $8, %rdx                                      #120.3
..LN1067:
        jl        ..B1.306      # Prob 10%                      #120.3
..LN1068:
                                # LOE rdx r8d
..B1.299:                       # Preds ..B1.298                # Infreq
..LN1069:
        andl      $-8, %r8d                                     #120.3
..LN1070:
        xorl      %eax, %eax                                    #120.3
..LN1071:
        movslq    %r8d, %r8                                     #120.3
..LN1072:
	.loc    1  121  is_stmt 1
        vpxor     %ymm0, %ymm0, %ymm0                           #121.19
..LN1073:
                                # LOE rax rdx r8 ymm0
..B1.300:                       # Preds ..B1.300 ..B1.299       # Infreq
..L258:         # optimization report
                # LOOP WAS UNROLLED BY 1
                # LOOP WAS VECTORIZED
                # VECTORIZATION SPEEDUP COEFFECIENT 5.335938
                # VECTOR TRIP COUNT IS ESTIMATED CONSTANT
                # VECTOR LENGTH 8
                # MAIN VECTOR TYPE: 32-bits integer
..LN1074:
        vmovdqu   %ymm0, pointer2(,%rax,4)                      #121.5
..LN1075:
	.loc    1  120  is_stmt 1
        addq      $8, %rax                                      #120.3
..LN1076:
        cmpq      %r8, %rax                                     #120.3
..LN1077:
        jb        ..B1.300      # Prob 99%                      #120.3
..LN1078:
                                # LOE rax rdx r8 ymm0
..B1.302:                       # Preds ..B1.300 ..B1.306       # Infreq
..LN1079:
        cmpq      %rdx, %r8                                     #120.3
..LN1080:
        jae       ..B1.103      # Prob 9%                       #120.3
..LN1081:
                                # LOE rdx r8
..B1.304:                       # Preds ..B1.302 ..B1.304       # Infreq
..L259:         # optimization report
                # LOOP WAS UNROLLED BY 1
                # REMAINDER LOOP FOR VECTORIZATION
                # VECTORIZATION SPEEDUP COEFFECIENT 5.335938
                # VECTOR TRIP COUNT IS ESTIMATED CONSTANT
                # VECTOR LENGTH 8
..LN1082:
	.loc    1  121  is_stmt 1
        movl      $0, pointer2(,%r8,4)                          #121.5
..LN1083:
	.loc    1  120  is_stmt 1
        incq      %r8                                           #120.3
..LN1084:
        cmpq      %rdx, %r8                                     #120.3
..LN1085:
        jb        ..B1.304      # Prob 99%                      #120.3
..LN1086:
        jmp       ..B1.103      # Prob 100%                     #120.3
..LN1087:
                                # LOE rdx r8
..B1.306:                       # Preds ..B1.298                # Infreq
..LN1088:
        xorl      %r8d, %r8d                                    #120.3
..LN1089:
        jmp       ..B1.302      # Prob 100%                     #120.3
..LN1090:
                                # LOE rdx r8
..___tag_value_main.46:
..B1.307:                       # Preds ..B1.88                 # Infreq
        movq      %rax, (%rsp)                                  #276.20
..LN1091:
                                # LOE
..B1.308:                       # Preds ..B1.307                # Infreq
..LN1092:
	.loc    4  276  is_stmt 1
        xorl      %eax, %eax                                    #276.20
..LN1093:
        movq      (%rsp), %rdi                                  #276.20
..___tag_value_main.260:
..LN1094:
        call      __cxa_call_unexpected                         #276.20
..___tag_value_main.261:
..LN1095:
        jmp       ..B1.179      # Prob 100%                     #276.20
..LN1096:
                                # LOE
..___tag_value_main.56:
..___tag_value_main.42:
..B1.312:                       # Preds ..B1.177 ..B1.308       # Infreq
        movq      %rax, (%rsp)                                  #674.7
        jmp       ..B1.179      # Prob 100%                     #674.7
..LN1097:
                                # LOE
..___tag_value_main.45:
..B1.318:                       # Preds ..B1.329                # Infreq
..LN1098:
	.loc    3  674  is_stmt 1
..LN1099:
	.loc    4  276  is_stmt 1
        lea       776(%rsp), %rdi                               #276.22
..LN1100:
	.loc    1  1226  is_stmt 1
        movq      %r14, (%rdi)                                  #1226.7
..___tag_value_main.262:
..LN1101:
	.loc    4  276  is_stmt 1
#       std::ios_base::~ios_base(std::ios_base *const)
        call      std::ios_base::~ios_base()                            #276.22
..___tag_value_main.263:
..LN1102:
        jmp       ..B1.179      # Prob 100%                     #276.22
..LN1103:
                                # LOE
..___tag_value_main.63:
..B1.320:                       # Preds ..B1.318                # Infreq
        movq      %rax, (%rsp)                                  #276.20
..LN1104:
                                # LOE
..B1.321:                       # Preds ..B1.320                # Infreq
..LN1105:
        xorl      %eax, %eax                                    #276.20
..LN1106:
        movq      (%rsp), %rdi                                  #276.20
..___tag_value_main.264:
..LN1107:
        call      __cxa_call_unexpected                         #276.20
..___tag_value_main.265:
..LN1108:
                                # LOE
..B1.322:                       # Preds ..B1.321                # Infreq
..LN1109:
        movq      (%rsp), %rdi                                  #276.20
..___tag_value_main.266:
..LN1110:
        call      _Unwind_Resume                                #276.20
..___tag_value_main.267:
..LN1111:
                                # LOE
..___tag_value_main.31:
..___tag_value_main.55:
..___tag_value_main.62:
..B1.325:                       # Preds ..B1.83                 # Infreq
        movq      %rax, (%rsp)                                  #220.7
..LN1112:
                                # LOE r14
..B1.326:                       # Preds ..B1.341 ..B1.325       # Infreq
..LN1113:
	.loc    3  220  is_stmt 1
..LN1114:
	.loc    6  198  is_stmt 1
        lea       592(%rsp), %rdi                               #198.9
..LN1115:
	.loc    1  1226  is_stmt 1
        movq      vtable for std::basic_streambuf<char, std::char_traits<char> >+16, -56(%rdi) #1226.7
..LN1116:
	.loc    6  198  is_stmt 1
#       std::locale::~locale(std::locale *)
        call      std::locale::~locale()                              #198.9
..LN1117:
                                # LOE r14
..B1.327:                       # Preds ..B1.326                # Infreq
..LN1118:
	.loc    3  220  is_stmt 1
        xorl      %eax, %eax                                    #220.7
..LN1119:
        movq      (%rsp), %rdi                                  #220.7
..___tag_value_main.268:
..LN1120:
        call      __cxa_call_unexpected                         #220.7
..___tag_value_main.269:
..LN1121:
                                # LOE r14
..B1.329:                       # Preds ..B1.327 ..B1.339       # Infreq
..LN1122:
	.loc    7  93  is_stmt 1
        movq      8+VTT for std::basic_ofstream<char, std::char_traits<char> >(%rip), %rax #93.24
..LN1123:
        movq      16+VTT for std::basic_ofstream<char, std::char_traits<char> >(%rip), %rdx #93.24
..LN1124:
	.loc    1  1226  is_stmt 1
        movq      %rax, 528(%rsp)                               #1226.7
..LN1125:
	.loc    7  93  is_stmt 1
        movq      -24(%rax), %rcx                               #93.24
..LN1126:
        movq      %rdx, 528(%rsp,%rcx)                          #93.24
..LN1127:
        jmp       ..B1.318      # Prob 100%                     #93.24
..LN1128:
                                # LOE r14
..___tag_value_main.47:
..___tag_value_main.64:
..___tag_value_main.60:
..B1.339:                       # Preds ..B1.327                # Infreq
        movq      %rax, (%rsp)                                  #674.7
        jmp       ..B1.329      # Prob 100%                     #674.7
..LN1129:
                                # LOE r14
..___tag_value_main.30:
..B1.340:                       # Preds ..B1.81                 # Infreq
        movq      %rax, (%rsp)                                  #220.7
..LN1130:
                                # LOE r14
..B1.341:                       # Preds ..B1.340                # Infreq
..LN1131:
	.loc    3  220  is_stmt 1
        lea       640(%rsp), %rdi                               #220.7
..___tag_value_main.270:
..LN1132:
#       std::__basic_file<char>::~__basic_file(std::__basic_file<char> *)
        call      std::__basic_file<char>::~__basic_file()                    #220.7
..___tag_value_main.271:
..LN1133:
        jmp       ..B1.326      # Prob 100%                     #220.7
..LN1134:
                                # LOE r14
..___tag_value_main.20:
..B1.343:                       # Preds ..B1.79 ..B1.77 ..B1.75 ..B1.73 # Infreq
        movq      %rax, (%rsp)                                  #1222.33
..LN1135:
                                # LOE r14
..B1.344:                       # Preds ..B1.343                # Infreq
..LN1136:
	.loc    1  1222  is_stmt 1
..LN1137:
	.loc    3  674  is_stmt 1
        movq      VTT for std::basic_ofstream<char, std::char_traits<char> >(%rip), %rax #674.7
..LN1138:
	.loc    3  220  is_stmt 1
        lea       536(%rsp), %rdi                               #220.15
..LN1139:
	.loc    3  674  is_stmt 1
        movq      24+VTT for std::basic_ofstream<char, std::char_traits<char> >(%rip), %rdx #674.7
..LN1140:
	.loc    1  1222  is_stmt 1
        movq      %rax, -8(%rdi)                                #1222.33
..LN1141:
	.loc    3  674  is_stmt 1
        movq      -24(%rax), %rcx                               #674.7
..LN1142:
        movq      %rdx, 528(%rsp,%rcx)                          #674.7
..LN1143:
	.loc    1  1222  is_stmt 1
        movq      vtable for std::basic_filebuf<char, std::char_traits<char> >+16, (%rdi) #1222.33
..___tag_value_main.272:
..LN1144:
	.loc    3  220  is_stmt 1
#       std::basic_filebuf<char, std::char_traits<char>>::close(std::basic_filebuf<char, std::char_traits<char>> *)
        call      std::basic_filebuf<char, std::char_traits<char> >::close() #220.15
..___tag_value_main.273:
..LN1145:
                                # LOE r14
..B1.346:                       # Preds ..B1.344                # Infreq
..LN1146:
        lea       640(%rsp), %rdi                               #220.24
..___tag_value_main.274:
..LN1147:
#       std::__basic_file<char>::~__basic_file(std::__basic_file<char> *)
        call      std::__basic_file<char>::~__basic_file()                    #220.24
..___tag_value_main.275:
..LN1148:
                                # LOE r14
..B1.347:                       # Preds ..B1.346                # Infreq
..LN1149:
	.loc    6  198  is_stmt 1
        lea       592(%rsp), %rdi                               #198.9
..LN1150:
	.loc    1  1222  is_stmt 1
        movq      vtable for std::basic_streambuf<char, std::char_traits<char> >+16, -56(%rdi) #1222.33
..LN1151:
	.loc    6  198  is_stmt 1
#       std::locale::~locale(std::locale *)
        call      std::locale::~locale()                              #198.9
..LN1152:
                                # LOE r14
..B1.348:                       # Preds ..B1.347                # Infreq
..LN1153:
	.loc    7  93  is_stmt 1
        movq      8+VTT for std::basic_ofstream<char, std::char_traits<char> >(%rip), %rax #93.24
..LN1154:
        movq      16+VTT for std::basic_ofstream<char, std::char_traits<char> >(%rip), %rdx #93.24
..LN1155:
	.loc    1  1222  is_stmt 1
        movq      %rax, 528(%rsp)                               #1222.33
..LN1156:
	.loc    7  93  is_stmt 1
        movq      -24(%rax), %rcx                               #93.24
..LN1157:
        movq      %rdx, 528(%rsp,%rcx)                          #93.24
..LN1158:
                                # LOE r14
..B1.351:                       # Preds ..B1.348                # Infreq
..LN1159:
	.loc    4  276  is_stmt 1
        lea       776(%rsp), %rdi                               #276.22
..LN1160:
	.loc    1  1222  is_stmt 1
        movq      %r14, (%rdi)                                  #1222.33
..___tag_value_main.276:
..LN1161:
	.loc    4  276  is_stmt 1
#       std::ios_base::~ios_base(std::ios_base *const)
        call      std::ios_base::~ios_base()                            #276.22
..___tag_value_main.277:
..LN1162:
        jmp       ..B1.180      # Prob 100%                     #276.22
..LN1163:
                                # LOE
..___tag_value_main.38:
..B1.353:                       # Preds ..B1.351                # Infreq
        movq      %rax, (%rsp)                                  #276.20
..LN1164:
                                # LOE
..B1.354:                       # Preds ..B1.353                # Infreq
..LN1165:
        xorl      %eax, %eax                                    #276.20
..LN1166:
        movq      (%rsp), %rdi                                  #276.20
..___tag_value_main.278:
..LN1167:
        call      __cxa_call_unexpected                         #276.20
..___tag_value_main.279:
..LN1168:
                                # LOE
..B1.356:                       # Preds ..B1.364 ..B1.354 ..B1.358 # Infreq
..LN1169:
	.loc    3  674  is_stmt 1
        xorl      %eax, %eax                                    #674.7
..LN1170:
        movq      (%rsp), %rdi                                  #674.7
..___tag_value_main.280:
..LN1171:
        call      __cxa_call_unexpected                         #674.7
..___tag_value_main.281:
..LN1172:
                                # LOE
..B1.357:                       # Preds ..B1.356                # Infreq
..LN1173:
        movq      (%rsp), %rdi                                  #674.7
..___tag_value_main.282:
..LN1174:
        call      _Unwind_Resume                                #674.7
..___tag_value_main.283:
..LN1175:
                                # LOE
..___tag_value_main.49:
..B1.358:                       # Preds ..B1.354                # Infreq
        movq      %rax, (%rsp)                                  #674.7
        jmp       ..B1.356      # Prob 100%                     #674.7
..LN1176:
                                # LOE
..___tag_value_main.37:
..B1.364:                       # Preds ..B1.375                # Infreq
..LN1177:
	.loc    4  276  is_stmt 1
        lea       776(%rsp), %rdi                               #276.22
..LN1178:
	.loc    1  1222  is_stmt 1
        movq      %r14, (%rdi)                                  #1222.33
..___tag_value_main.284:
..LN1179:
	.loc    4  276  is_stmt 1
#       std::ios_base::~ios_base(std::ios_base *const)
        call      std::ios_base::~ios_base()                            #276.22
..___tag_value_main.285:
..LN1180:
        jmp       ..B1.356      # Prob 100%                     #276.22
..LN1181:
                                # LOE
..___tag_value_main.58:
..B1.366:                       # Preds ..B1.364                # Infreq
        movq      %rax, (%rsp)                                  #276.20
..LN1182:
                                # LOE
..B1.367:                       # Preds ..B1.366                # Infreq
..LN1183:
        xorl      %eax, %eax                                    #276.20
..LN1184:
        movq      (%rsp), %rdi                                  #276.20
..___tag_value_main.286:
..LN1185:
        call      __cxa_call_unexpected                         #276.20
..___tag_value_main.287:
..LN1186:
                                # LOE
..B1.368:                       # Preds ..B1.367                # Infreq
..LN1187:
        movq      (%rsp), %rdi                                  #276.20
..___tag_value_main.288:
..LN1188:
        call      _Unwind_Resume                                #276.20
..___tag_value_main.289:
..LN1189:
                                # LOE
..___tag_value_main.26:
..___tag_value_main.48:
..___tag_value_main.57:
..B1.371:                       # Preds ..B1.346                # Infreq
        movq      %rax, (%rsp)                                  #220.7
..LN1190:
                                # LOE r14
..B1.372:                       # Preds ..B1.387 ..B1.371       # Infreq
..LN1191:
	.loc    3  220  is_stmt 1
..LN1192:
	.loc    6  198  is_stmt 1
        lea       592(%rsp), %rdi                               #198.9
..LN1193:
	.loc    1  1222  is_stmt 1
        movq      vtable for std::basic_streambuf<char, std::char_traits<char> >+16, -56(%rdi) #1222.33
..LN1194:
	.loc    6  198  is_stmt 1
#       std::locale::~locale(std::locale *)
        call      std::locale::~locale()                              #198.9
..LN1195:
                                # LOE r14
..B1.373:                       # Preds ..B1.372                # Infreq
..LN1196:
	.loc    3  220  is_stmt 1
        xorl      %eax, %eax                                    #220.7
..LN1197:
        movq      (%rsp), %rdi                                  #220.7
..___tag_value_main.290:
..LN1198:
        call      __cxa_call_unexpected                         #220.7
..___tag_value_main.291:
..LN1199:
                                # LOE r14
..B1.375:                       # Preds ..B1.373 ..B1.385       # Infreq
..LN1200:
	.loc    7  93  is_stmt 1
        movq      8+VTT for std::basic_ofstream<char, std::char_traits<char> >(%rip), %rax #93.24
..LN1201:
        movq      16+VTT for std::basic_ofstream<char, std::char_traits<char> >(%rip), %rdx #93.24
..LN1202:
	.loc    1  1222  is_stmt 1
        movq      %rax, 528(%rsp)                               #1222.33
..LN1203:
	.loc    7  93  is_stmt 1
        movq      -24(%rax), %rcx                               #93.24
..LN1204:
        movq      %rdx, 528(%rsp,%rcx)                          #93.24
..LN1205:
        jmp       ..B1.364      # Prob 100%                     #93.24
..LN1206:
                                # LOE r14
..___tag_value_main.39:
..___tag_value_main.61:
..___tag_value_main.52:
..B1.385:                       # Preds ..B1.373                # Infreq
        movq      %rax, (%rsp)                                  #674.7
        jmp       ..B1.375      # Prob 100%                     #674.7
..LN1207:
                                # LOE r14
..___tag_value_main.24:
..B1.386:                       # Preds ..B1.344                # Infreq
        movq      %rax, (%rsp)                                  #220.7
..LN1208:
                                # LOE r14
..B1.387:                       # Preds ..B1.386                # Infreq
..LN1209:
	.loc    3  220  is_stmt 1
        lea       640(%rsp), %rdi                               #220.7
..___tag_value_main.292:
..LN1210:
#       std::__basic_file<char>::~__basic_file(std::__basic_file<char> *)
        call      std::__basic_file<char>::~__basic_file()                    #220.7
..___tag_value_main.293:
..LN1211:
        jmp       ..B1.372      # Prob 100%                     #220.7
..LN1212:
                                # LOE r14
..___tag_value_main.10:
..B1.389:                       # Preds ..B1.72 ..B1.417 ..B1.69 ..B1.68 # Infreq
        movq      %rax, (%rsp)                                  #640.7
..LN1213:
                                # LOE r14
..B1.390:                       # Preds ..B1.389                # Infreq
..LN1214:
	.loc    3  640  is_stmt 1
..LN1215:
	.loc    3  220  is_stmt 1
        lea       536(%rsp), %rdi                               #220.15
..LN1216:
	.loc    1  1222  is_stmt 1
        movq      vtable for std::basic_filebuf<char, std::char_traits<char> >+16, (%rdi) #1222.17
..___tag_value_main.294:
..LN1217:
	.loc    3  220  is_stmt 1
#       std::basic_filebuf<char, std::char_traits<char>>::close(std::basic_filebuf<char, std::char_traits<char>> *)
        call      std::basic_filebuf<char, std::char_traits<char> >::close() #220.15
..___tag_value_main.295:
..LN1218:
                                # LOE r14
..B1.392:                       # Preds ..B1.390                # Infreq
..LN1219:
        lea       640(%rsp), %rdi                               #220.24
..___tag_value_main.296:
..LN1220:
#       std::__basic_file<char>::~__basic_file(std::__basic_file<char> *)
        call      std::__basic_file<char>::~__basic_file()                    #220.24
..___tag_value_main.297:
..LN1221:
                                # LOE r14
..B1.393:                       # Preds ..B1.392                # Infreq
..LN1222:
	.loc    6  198  is_stmt 1
        lea       592(%rsp), %rdi                               #198.9
..LN1223:
	.loc    1  1222  is_stmt 1
        movq      vtable for std::basic_streambuf<char, std::char_traits<char> >+16, -56(%rdi) #1222.17
..LN1224:
	.loc    6  198  is_stmt 1
#       std::locale::~locale(std::locale *)
        call      std::locale::~locale()                              #198.9
..LN1225:
                                # LOE r14
..B1.395:                       # Preds ..B1.393 ..B1.418       # Infreq
..LN1226:
	.loc    7  93  is_stmt 1
        movq      8+VTT for std::basic_ofstream<char, std::char_traits<char> >(%rip), %rax #93.24
..LN1227:
        movq      16+VTT for std::basic_ofstream<char, std::char_traits<char> >(%rip), %rdx #93.24
..LN1228:
	.loc    1  1222  is_stmt 1
        movq      %rax, 528(%rsp)                               #1222.17
..LN1229:
	.loc    7  93  is_stmt 1
        movq      -24(%rax), %rcx                               #93.24
..LN1230:
        movq      %rdx, 528(%rsp,%rcx)                          #93.24
..LN1231:
                                # LOE r14
..B1.399:                       # Preds ..B1.419 ..B1.395       # Infreq
..LN1232:
	.loc    4  276  is_stmt 1
        lea       776(%rsp), %rdi                               #276.22
..LN1233:
	.loc    1  1222  is_stmt 1
        movq      %r14, (%rdi)                                  #1222.17
..___tag_value_main.298:
..LN1234:
	.loc    4  276  is_stmt 1
#       std::ios_base::~ios_base(std::ios_base *const)
        call      std::ios_base::~ios_base()                            #276.22
..___tag_value_main.299:
..LN1235:
        jmp       ..B1.180      # Prob 100%                     #276.22
..LN1236:
                                # LOE
..___tag_value_main.17:
..B1.401:                       # Preds ..B1.399                # Infreq
        movq      %rax, (%rsp)                                  #276.20
..LN1237:
                                # LOE
..B1.402:                       # Preds ..B1.411 ..B1.401       # Infreq
..LN1238:
        xorl      %eax, %eax                                    #276.20
..LN1239:
        movq      (%rsp), %rdi                                  #276.20
..___tag_value_main.300:
..LN1240:
        call      __cxa_call_unexpected                         #276.20
..___tag_value_main.301:
..LN1241:
                                # LOE
..B1.403:                       # Preds ..B1.402                # Infreq
..LN1242:
        movq      (%rsp), %rdi                                  #276.20
..___tag_value_main.302:
..LN1243:
        call      _Unwind_Resume                                #276.20
..___tag_value_main.303:
..LN1244:
                                # LOE
..___tag_value_main.18:
..___tag_value_main.21:
..___tag_value_main.16:
..B1.410:                       # Preds ..B1.392                # Infreq
        movq      %rax, (%rsp)                                  #220.7
..LN1245:
                                # LOE
..B1.411:                       # Preds ..B1.415 ..B1.410       # Infreq
..LN1246:
	.loc    3  220  is_stmt 1
..LN1247:
	.loc    6  198  is_stmt 1
        lea       592(%rsp), %rdi                               #198.9
..LN1248:
	.loc    1  1222  is_stmt 1
        movq      vtable for std::basic_streambuf<char, std::char_traits<char> >+16, -56(%rdi) #1222.17
..LN1249:
	.loc    6  198  is_stmt 1
#       std::locale::~locale(std::locale *)
        call      std::locale::~locale()                              #198.9
..LN1250:
        jmp       ..B1.402      # Prob 100%                     #198.9
..LN1251:
                                # LOE
..___tag_value_main.15:
..B1.414:                       # Preds ..B1.390                # Infreq
        movq      %rax, (%rsp)                                  #220.7
..LN1252:
                                # LOE
..B1.415:                       # Preds ..B1.414                # Infreq
..LN1253:
	.loc    3  220  is_stmt 1
        lea       640(%rsp), %rdi                               #220.7
..___tag_value_main.304:
..LN1254:
#       std::__basic_file<char>::~__basic_file(std::__basic_file<char> *)
        call      std::__basic_file<char>::~__basic_file()                    #220.7
..___tag_value_main.305:
..LN1255:
        jmp       ..B1.411      # Prob 100%                     #220.7
..LN1256:
                                # LOE
..B1.417:                       # Preds ..B1.71                 # Infreq
..LN1257:
	.loc    1  1222  is_stmt 1
        movq      528(%rsp), %rax                               #1222.17
..LN1258:
	.loc    3  717  is_stmt 1
        movq      -24(%rax), %rdx                               #717.4
..LN1259:
        lea       528(%rsp,%rdx), %rdi                          #717.4
..LN1260:
	.loc    4  152  is_stmt 1
        movl      32(%rdi), %esi                                #152.15
..LN1261:
        orl       $4, %esi                                      #152.15
..___tag_value_main.306:
..LN1262:
#       std::basic_ios<char, std::char_traits<char>>::clear(std::basic_ios<char, std::char_traits<char>> *, std::ios_base::iostate)
        call      std::basic_ios<char, std::char_traits<char> >::clear(std::_Ios_Iostate) #152.15
..___tag_value_main.307:
..LN1263:
        jmp       ..B1.73       # Prob 100%                     #152.15
..LN1264:
                                # LOE rbx r12 r13 r14 r15
..___tag_value_main.6:
..B1.418:                       # Preds ..B1.67                 # Infreq
        movq      %rax, (%rsp)                                  #640.7
        jmp       ..B1.395      # Prob 100%                     #640.7
..LN1265:
                                # LOE r14
..___tag_value_main.4:
..B1.419:                       # Preds ..B1.66                 # Infreq
        movq      %rax, (%rsp)                                  #384.7
        jmp       ..B1.399      # Prob 100%                     #384.7
..LN1266:
                                # LOE r14
..___tag_value_main.12:
..B1.429:                       # Preds ..B1.51                 # Infreq
..LN1267:
	.loc    7  384  is_stmt 1
..LN1268:
	.loc    1  137  is_stmt 1
        movslq    %ebx, %rcx                                    #137.3
..LN1269:
        cmpq      $8, %rcx                                      #137.3
..LN1270:
        jl        ..B1.437      # Prob 10%                      #137.3
..LN1271:
                                # LOE rcx ebx
..B1.430:                       # Preds ..B1.429                # Infreq
..LN1272:
        movl      %ebx, %eax                                    #137.3
..LN1273:
        xorl      %edx, %edx                                    #137.3
..LN1274:
        andl      $-8, %eax                                     #137.3
..LN1275:
        movslq    %eax, %rax                                    #137.3
..LN1276:
	.loc    1  138  is_stmt 1
        vpxor     %ymm0, %ymm0, %ymm0                           #138.29
..LN1277:
                                # LOE rax rdx rcx ebx ymm0
..B1.431:                       # Preds ..B1.431 ..B1.430       # Infreq
..L308:         # optimization report
                # LOOP WAS UNROLLED BY 1
                # LOOP WAS VECTORIZED
                # VECTORIZATION SPEEDUP COEFFECIENT 5.335938
                # VECTOR TRIP COUNT IS ESTIMATED CONSTANT
                # VECTOR LENGTH 8
                # MAIN VECTOR TYPE: 32-bits integer
..LN1278:
        vmovdqu   %ymm0, number_of_partners(,%rdx,4)            #138.5
..LN1279:
	.loc    1  137  is_stmt 1
        addq      $8, %rdx                                      #137.3
..LN1280:
        cmpq      %rax, %rdx                                    #137.3
..LN1281:
        jb        ..B1.431      # Prob 99%                      #137.3
..LN1282:
                                # LOE rax rdx rcx ebx ymm0
..B1.433:                       # Preds ..B1.431 ..B1.437       # Infreq
..LN1283:
        cmpq      %rcx, %rax                                    #137.3
..LN1284:
        jae       ..B1.53       # Prob 9%                       #137.3
..LN1285:
                                # LOE rax rcx ebx
..B1.435:                       # Preds ..B1.433 ..B1.435       # Infreq
..L309:         # optimization report
                # LOOP WAS UNROLLED BY 1
                # REMAINDER LOOP FOR VECTORIZATION
                # VECTORIZATION SPEEDUP COEFFECIENT 5.335938
                # VECTOR TRIP COUNT IS ESTIMATED CONSTANT
                # VECTOR LENGTH 8
..LN1286:
	.loc    1  138  is_stmt 1
        movl      $0, number_of_partners(,%rax,4)               #138.5
..LN1287:
	.loc    1  137  is_stmt 1
        incq      %rax                                          #137.3
..LN1288:
        cmpq      %rcx, %rax                                    #137.3
..LN1289:
        jb        ..B1.435      # Prob 99%                      #137.3
..LN1290:
        jmp       ..B1.53       # Prob 100%                     #137.3
..LN1291:
                                # LOE rax rcx ebx
..B1.437:                       # Preds ..B1.429                # Infreq
..LN1292:
        xorl      %eax, %eax                                    #137.3
..LN1293:
        jmp       ..B1.433      # Prob 100%                     #137.3
        .align    16,0x90
..LN1294:
                                # LOE rax rcx ebx
..LN1295:
	.cfi_endproc
# mark_end;
	.type	main,@function
	.size	main,.-main
..LNmain.1296:
.LNmain:
	.section .gcc_except_table, "a"
	.align 4
main$$LSDA:
	.byte	255
	.byte	0
	.uleb128	..___tag_value_main.316 - ..___tag_value_main.315
..___tag_value_main.315:
	.byte	1
	.uleb128	..___tag_value_main.314 - ..___tag_value_main.313
..___tag_value_main.313:
	.uleb128	..___tag_value_main.80 - ..___tag_value_main.66
	.uleb128	..___tag_value_main.93 - ..___tag_value_main.80
	.byte	0
	.byte	0
	.uleb128	..___tag_value_main.94 - ..___tag_value_main.66
	.uleb128	..___tag_value_main.95 - ..___tag_value_main.94
	.uleb128	..___tag_value_main.1 - ..___tag_value_main.66
	.byte	0
	.uleb128	..___tag_value_main.96 - ..___tag_value_main.66
	.uleb128	..___tag_value_main.97 - ..___tag_value_main.96
	.uleb128	..___tag_value_main.2 - ..___tag_value_main.66
	.byte	0
	.uleb128	..___tag_value_main.98 - ..___tag_value_main.66
	.uleb128	..___tag_value_main.103 - ..___tag_value_main.98
	.uleb128	..___tag_value_main.3 - ..___tag_value_main.66
	.byte	0
	.uleb128	..___tag_value_main.104 - ..___tag_value_main.66
	.uleb128	..___tag_value_main.111 - ..___tag_value_main.104
	.uleb128	..___tag_value_main.13 - ..___tag_value_main.66
	.byte	0
	.uleb128	..___tag_value_main.112 - ..___tag_value_main.66
	.uleb128	..___tag_value_main.113 - ..___tag_value_main.112
	.uleb128	..___tag_value_main.23 - ..___tag_value_main.66
	.byte	3
	.uleb128	..___tag_value_main.114 - ..___tag_value_main.66
	.uleb128	..___tag_value_main.115 - ..___tag_value_main.114
	.uleb128	..___tag_value_main.25 - ..___tag_value_main.66
	.byte	3
	.uleb128	..___tag_value_main.116 - ..___tag_value_main.66
	.uleb128	..___tag_value_main.117 - ..___tag_value_main.116
	.uleb128	..___tag_value_main.33 - ..___tag_value_main.66
	.byte	1
	.uleb128	..___tag_value_main.118 - ..___tag_value_main.66
	.uleb128	..___tag_value_main.121 - ..___tag_value_main.118
	.byte	0
	.byte	0
	.uleb128	..___tag_value_main.125 - ..___tag_value_main.66
	.uleb128	..___tag_value_main.126 - ..___tag_value_main.125
	.uleb128	..___tag_value_main.4 - ..___tag_value_main.66
	.byte	0
	.uleb128	..___tag_value_main.127 - ..___tag_value_main.66
	.uleb128	..___tag_value_main.128 - ..___tag_value_main.127
	.uleb128	..___tag_value_main.6 - ..___tag_value_main.66
	.byte	0
	.uleb128	..___tag_value_main.129 - ..___tag_value_main.66
	.uleb128	..___tag_value_main.134 - ..___tag_value_main.129
	.uleb128	..___tag_value_main.10 - ..___tag_value_main.66
	.byte	0
	.uleb128	..___tag_value_main.135 - ..___tag_value_main.66
	.uleb128	..___tag_value_main.142 - ..___tag_value_main.135
	.uleb128	..___tag_value_main.20 - ..___tag_value_main.66
	.byte	0
	.uleb128	..___tag_value_main.143 - ..___tag_value_main.66
	.uleb128	..___tag_value_main.144 - ..___tag_value_main.143
	.uleb128	..___tag_value_main.30 - ..___tag_value_main.66
	.byte	3
	.uleb128	..___tag_value_main.145 - ..___tag_value_main.66
	.uleb128	..___tag_value_main.146 - ..___tag_value_main.145
	.uleb128	..___tag_value_main.31 - ..___tag_value_main.66
	.byte	3
	.uleb128	..___tag_value_main.147 - ..___tag_value_main.66
	.uleb128	..___tag_value_main.148 - ..___tag_value_main.147
	.uleb128	..___tag_value_main.46 - ..___tag_value_main.66
	.byte	1
	.uleb128	..___tag_value_main.149 - ..___tag_value_main.66
	.uleb128	..___tag_value_main.189 - ..___tag_value_main.149
	.byte	0
	.byte	0
	.uleb128	..___tag_value_main.206 - ..___tag_value_main.66
	.uleb128	..___tag_value_main.207 - ..___tag_value_main.206
	.uleb128	..___tag_value_main.42 - ..___tag_value_main.66
	.byte	1
	.uleb128	..___tag_value_main.208 - ..___tag_value_main.66
	.uleb128	..___tag_value_main.211 - ..___tag_value_main.208
	.byte	0
	.byte	0
	.uleb128	..___tag_value_main.212 - ..___tag_value_main.66
	.uleb128	..___tag_value_main.213 - ..___tag_value_main.212
	.uleb128	..___tag_value_main.54 - ..___tag_value_main.66
	.byte	1
	.uleb128	..___tag_value_main.218 - ..___tag_value_main.66
	.uleb128	..___tag_value_main.219 - ..___tag_value_main.218
	.uleb128	..___tag_value_main.34 - ..___tag_value_main.66
	.byte	3
	.uleb128	..___tag_value_main.222 - ..___tag_value_main.66
	.uleb128	..___tag_value_main.223 - ..___tag_value_main.222
	.uleb128	..___tag_value_main.19 - ..___tag_value_main.66
	.byte	3
	.uleb128	..___tag_value_main.224 - ..___tag_value_main.66
	.uleb128	..___tag_value_main.225 - ..___tag_value_main.224
	.uleb128	..___tag_value_main.22 - ..___tag_value_main.66
	.byte	3
	.uleb128	..___tag_value_main.226 - ..___tag_value_main.66
	.uleb128	..___tag_value_main.227 - ..___tag_value_main.226
	.uleb128	..___tag_value_main.28 - ..___tag_value_main.66
	.byte	1
	.uleb128	..___tag_value_main.228 - ..___tag_value_main.66
	.uleb128	..___tag_value_main.229 - ..___tag_value_main.228
	.uleb128	..___tag_value_main.36 - ..___tag_value_main.66
	.byte	1
	.uleb128	..___tag_value_main.234 - ..___tag_value_main.66
	.uleb128	..___tag_value_main.235 - ..___tag_value_main.234
	.uleb128	..___tag_value_main.44 - ..___tag_value_main.66
	.byte	1
	.uleb128	..___tag_value_main.240 - ..___tag_value_main.66
	.uleb128	..___tag_value_main.241 - ..___tag_value_main.240
	.uleb128	..___tag_value_main.29 - ..___tag_value_main.66
	.byte	3
	.uleb128	..___tag_value_main.244 - ..___tag_value_main.66
	.uleb128	..___tag_value_main.245 - ..___tag_value_main.244
	.uleb128	..___tag_value_main.7 - ..___tag_value_main.66
	.byte	3
	.uleb128	..___tag_value_main.246 - ..___tag_value_main.66
	.uleb128	..___tag_value_main.247 - ..___tag_value_main.246
	.uleb128	..___tag_value_main.11 - ..___tag_value_main.66
	.byte	3
	.uleb128	..___tag_value_main.248 - ..___tag_value_main.66
	.uleb128	..___tag_value_main.249 - ..___tag_value_main.248
	.uleb128	..___tag_value_main.9 - ..___tag_value_main.66
	.byte	1
	.uleb128	..___tag_value_main.256 - ..___tag_value_main.66
	.uleb128	..___tag_value_main.257 - ..___tag_value_main.256
	.uleb128	..___tag_value_main.3 - ..___tag_value_main.66
	.byte	0
	.uleb128	..___tag_value_main.260 - ..___tag_value_main.66
	.uleb128	..___tag_value_main.261 - ..___tag_value_main.260
	.uleb128	..___tag_value_main.56 - ..___tag_value_main.66
	.byte	1
	.uleb128	..___tag_value_main.262 - ..___tag_value_main.66
	.uleb128	..___tag_value_main.263 - ..___tag_value_main.262
	.uleb128	..___tag_value_main.63 - ..___tag_value_main.66
	.byte	1
	.uleb128	..___tag_value_main.268 - ..___tag_value_main.66
	.uleb128	..___tag_value_main.269 - ..___tag_value_main.268
	.uleb128	..___tag_value_main.47 - ..___tag_value_main.66
	.byte	3
	.uleb128	..___tag_value_main.272 - ..___tag_value_main.66
	.uleb128	..___tag_value_main.273 - ..___tag_value_main.272
	.uleb128	..___tag_value_main.24 - ..___tag_value_main.66
	.byte	3
	.uleb128	..___tag_value_main.274 - ..___tag_value_main.66
	.uleb128	..___tag_value_main.275 - ..___tag_value_main.274
	.uleb128	..___tag_value_main.26 - ..___tag_value_main.66
	.byte	3
	.uleb128	..___tag_value_main.276 - ..___tag_value_main.66
	.uleb128	..___tag_value_main.277 - ..___tag_value_main.276
	.uleb128	..___tag_value_main.38 - ..___tag_value_main.66
	.byte	1
	.uleb128	..___tag_value_main.278 - ..___tag_value_main.66
	.uleb128	..___tag_value_main.279 - ..___tag_value_main.278
	.uleb128	..___tag_value_main.49 - ..___tag_value_main.66
	.byte	1
	.uleb128	..___tag_value_main.284 - ..___tag_value_main.66
	.uleb128	..___tag_value_main.285 - ..___tag_value_main.284
	.uleb128	..___tag_value_main.58 - ..___tag_value_main.66
	.byte	1
	.uleb128	..___tag_value_main.290 - ..___tag_value_main.66
	.uleb128	..___tag_value_main.291 - ..___tag_value_main.290
	.uleb128	..___tag_value_main.39 - ..___tag_value_main.66
	.byte	3
	.uleb128	..___tag_value_main.294 - ..___tag_value_main.66
	.uleb128	..___tag_value_main.295 - ..___tag_value_main.294
	.uleb128	..___tag_value_main.15 - ..___tag_value_main.66
	.byte	3
	.uleb128	..___tag_value_main.296 - ..___tag_value_main.66
	.uleb128	..___tag_value_main.297 - ..___tag_value_main.296
	.uleb128	..___tag_value_main.18 - ..___tag_value_main.66
	.byte	3
	.uleb128	..___tag_value_main.298 - ..___tag_value_main.66
	.uleb128	..___tag_value_main.299 - ..___tag_value_main.298
	.uleb128	..___tag_value_main.17 - ..___tag_value_main.66
	.byte	1
	.uleb128	..___tag_value_main.306 - ..___tag_value_main.66
	.uleb128	..___tag_value_main.307 - ..___tag_value_main.306
	.uleb128	..___tag_value_main.10 - ..___tag_value_main.66
	.byte	0
..___tag_value_main.314:
	.byte	127
	.byte	0
	.byte	0
	.byte	125
	.long	0x00000000,0x00000000
..___tag_value_main.316:
	.byte	0
	.data
	.file   8 "/home/app/gcc/4.8.5/include/c++/4.8.5/bits/stl_relops.h"
	.file   9 "/home/app/gcc/4.8.5/include/c++/4.8.5/debug/debug.h"
	.file   10 "/home/app/gcc/4.8.5/include/c++/4.8.5/bits/exception_ptr.h"
	.file   11 "/home/app/gcc/4.8.5/include/c++/4.8.5/bits/random.h"
	.file   12 "/home/app/gcc/4.8.5/include/c++/4.8.5/functional"
	.file   13 "/usr/include/bits/stat.h"
	.file   14 "/usr/include/bits/types.h"
	.file   15 "/usr/include/time.h"
	.file   16 "/home/app/gcc/4.8.5/include/c++/4.8.5/iosfwd"
	.file   17 "/home/app/gcc/4.8.5/include/c++/4.8.5/bits/ios_base.h"
	.file   18 "/usr/include/bits/time.h"
# -- End  main
	.section .text._ZNSt11char_traitsIcE6lengthEPKc, "xaG",@progbits,std::char_traits<char>::length(char const*),comdat
..TXTST1:
.L_2__routine_start__ZNSt11char_traitsIcE6lengthEPKc_1:
# -- Begin  std::char_traits<char>::length(char const*)
	.section .text._ZNSt11char_traitsIcE6lengthEPKc, "xaG",@progbits,std::char_traits<char>::length(char const*),comdat
# mark_begin;
       .align    16,0x90
	.weak std::char_traits<char>::length(char const*)
# --- std::char_traits<char>::length(const std::char_traits<char>::char_type *)
std::char_traits<char>::length(char const*):
# parameter 1(__s): %rdi
..B2.1:                         # Preds ..B2.0
	.cfi_startproc
	.cfi_personality 0x3,__gxx_personality_v0
..___tag_value__ZNSt11char_traitsIcE6lengthEPKc.318:
..L319:
                                                        #259.7
..LN1297:
	.file   19 "/home/app/gcc/4.8.5/include/c++/4.8.5/bits/char_traits.h"
	.loc    19  259  is_stmt 1
        pushq     %rsi                                          #259.7
	.cfi_def_cfa_offset 16
..LN1298:
	.loc    19  259  prologue_end  is_stmt 1
        movq      %rdi, %rdx                                    #259.16
..LN1299:
        movq      %rdx, %rcx                                    #259.16
..LN1300:
        andq      $-16, %rdx                                    #259.16
..LN1301:
        vpxor     %xmm0, %xmm0, %xmm0                           #259.16
..LN1302:
        vpcmpeqb  (%rdx), %xmm0, %xmm0                          #259.16
..LN1303:
        vpmovmskb %xmm0, %eax                                   #259.16
..LN1304:
        andl      $15, %ecx                                     #259.16
..LN1305:
        shrl      %cl, %eax                                     #259.16
..LN1306:
        bsf       %eax, %eax                                    #259.16
..LN1307:
        jne       ..L322        # Prob 60%                      #259.16
..LN1308:
        movq      %rdx, %rax                                    #259.16
..LN1309:
        addq      %rcx, %rdx                                    #259.16
..LN1310:
        call      __intel_sse4_strlen                           #259.16
..L322:                                                         #
..LN1311:
                                # LOE rax rbx rbp r12 r13 r14 r15
..B2.4:                         # Preds ..B2.1
..LN1312:
	.loc    19  259  epilogue_begin  is_stmt 1
        popq      %rcx                                          #259.16
	.cfi_def_cfa_offset 8
..LN1313:
        ret                                                     #259.16
        .align    16,0x90
..LN1314:
                                # LOE
..LN1315:
	.cfi_endproc
# mark_end;
	.type	std::char_traits<char>::length(char const*),@function
	.size	std::char_traits<char>::length(char const*),.-std::char_traits<char>::length(char const*)
..LN_ZNSt11char_traitsIcE6lengthEPKc.1316:
.LN_ZNSt11char_traitsIcE6lengthEPKc:
	.data
	.file   20 "/home/app/gcc/4.8.5/include/c++/4.8.5/bits/postypes.h"
	.file   21 "/usr/include/wchar.h"
	.file   22 "/home/app/gcc/4.8.5/include/c++/4.8.5/x86_64-unknown-linux-gnu/bits/c++config.h"
# -- End  std::char_traits<char>::length(char const*)
	.text
.L_2__routine_start__Z10force_pairv_2:
# -- Begin  force_pair()
	.text
# mark_begin;
       .align    16,0x90
	.globl force_pair()
# --- force_pair()
force_pair():
..B3.1:                         # Preds ..B3.0
	.cfi_startproc
	.cfi_personality 0x3,__gxx_personality_v0
..___tag_value__Z10force_pairv.328:
..L329:
                                                        #181.18
..LN1317:
	.loc    1  181  prologue_end  is_stmt 1
..LN1318:
	.loc    1  182  is_stmt 1
        xorl      %eax, %eax                                    #182.3
..LN1319:
        movslq    number_of_pairs(%rip), %rdx                   #182.23
..LN1320:
        testq     %rdx, %rdx                                    #182.23
..LN1321:
        jle       ..B3.7        # Prob 10%                      #182.23
..LN1322:
                                # LOE rax rdx rbx rbp r12 r13 r14 r15
..B3.2:                         # Preds ..B3.1
..LN1323:
	.loc    1  189  is_stmt 1
        vmovsd    .L_2il0floatpacket.37(%rip), %xmm5            #189.14
..LN1324:
	.loc    1  191  is_stmt 1
        vmovsd    .L_2il0floatpacket.38(%rip), %xmm4            #191.57
..LN1325:
        vmovsd    .L_2il0floatpacket.39(%rip), %xmm3            #191.19
..LN1326:
                                # LOE rax rdx rbx rbp r12 r13 r14 r15 xmm3 xmm4 xmm5
..B3.3:                         # Preds ..B3.5 ..B3.2
..L331:         # optimization report
                # PEELED LOOP
                # LOOP STMTS WERE REORDERED
                # %s was not vectorized: vector dependence prevents vectorization%s
                # VECTOR TRIP COUNT IS ESTIMATED CONSTANT
..LN1327:
	.loc    1  184  is_stmt 1
        movslq    j_particles(,%rax,4), %rsi                    #184.19
..LN1328:
	.loc    1  187  is_stmt 1
        shlq      $5, %rsi                                      #187.17
..LN1329:
	.loc    1  183  is_stmt 1
        movslq    i_particles(,%rax,4), %rcx                    #183.19
..LN1330:
	.loc    1  187  is_stmt 1
        shlq      $5, %rcx                                      #187.27
..LN1331:
	.loc    1  186  is_stmt 1
        vmovsd    8+q(%rsi), %xmm1                              #186.17
..LN1332:
	.loc    1  185  is_stmt 1
        vmovsd    q(%rsi), %xmm0                                #185.17
..LN1333:
	.loc    1  187  is_stmt 1
        vmovsd    16+q(%rsi), %xmm2                             #187.17
..LN1334:
	.loc    1  186  is_stmt 1
        vsubsd    8+q(%rcx), %xmm1, %xmm1                       #186.27
..LN1335:
	.loc    1  185  is_stmt 1
        vsubsd    q(%rcx), %xmm0, %xmm0                         #185.27
..LN1336:
	.loc    1  187  is_stmt 1
        vsubsd    16+q(%rcx), %xmm2, %xmm2                      #187.27
..LN1337:
	.loc    1  188  is_stmt 1
        vmulsd    %xmm1, %xmm1, %xmm7                           #188.33
..LN1338:
        vfmadd231sd %xmm0, %xmm0, %xmm7                         #188.43
..LN1339:
        vfmadd231sd %xmm2, %xmm2, %xmm7                         #188.43
..LN1340:
	.loc    1  189  is_stmt 1
        vcomisd   %xmm5, %xmm7                                  #189.14
..LN1341:
        ja        ..B3.5        # Prob 50%                      #189.14
..LN1342:
                                # LOE rax rdx rcx rbx rbp rsi r12 r13 r14 r15 xmm0 xmm1 xmm2 xmm3 xmm4 xmm5 xmm7
..B3.4:                         # Preds ..B3.3
..LN1343:
	.loc    1  190  is_stmt 1
        vmulsd    %xmm7, %xmm7, %xmm6                           #190.22
..LN1344:
        vmulsd    %xmm7, %xmm6, %xmm8                           #190.27
..LN1345:
	.loc    1  191  is_stmt 1
        vmulsd    %xmm8, %xmm7, %xmm7                           #191.45
..LN1346:
        vmovsd    .L_2il0floatpacket.40(%rip), %xmm9            #191.57
..LN1347:
        vfmsub231sd %xmm8, %xmm3, %xmm9                         #191.57
..LN1348:
        vmulsd    %xmm8, %xmm7, %xmm10                          #191.50
..LN1349:
        vdivsd    %xmm10, %xmm9, %xmm11                         #191.50
..LN1350:
        vmulsd    %xmm11, %xmm4, %xmm6                          #191.57
..LN1351:
	.loc    1  192  is_stmt 1
        vmovsd    p(%rcx), %xmm12                               #192.5
..LN1352:
	.loc    1  193  is_stmt 1
        vmovsd    8+p(%rcx), %xmm13                             #193.5
..LN1353:
	.loc    1  194  is_stmt 1
        vmovsd    16+p(%rcx), %xmm14                            #194.5
..LN1354:
	.loc    1  192  is_stmt 1
        vfmadd231sd %xmm0, %xmm6, %xmm12                        #192.5
..LN1355:
	.loc    1  193  is_stmt 1
        vfmadd231sd %xmm6, %xmm1, %xmm13                        #193.5
..LN1356:
	.loc    1  194  is_stmt 1
        vfmadd231sd %xmm6, %xmm2, %xmm14                        #194.5
..LN1357:
	.loc    1  192  is_stmt 1
        vmovsd    %xmm12, p(%rcx)                               #192.5
..LN1358:
	.loc    1  193  is_stmt 1
        vmovsd    %xmm13, 8+p(%rcx)                             #193.5
..LN1359:
	.loc    1  194  is_stmt 1
        vmovsd    %xmm14, 16+p(%rcx)                            #194.5
..LN1360:
	.loc    1  195  is_stmt 1
        vmovsd    p(%rsi), %xmm15                               #195.5
..LN1361:
        vfnmadd213sd %xmm15, %xmm6, %xmm0                       #195.5
..LN1362:
        vmovsd    %xmm0, p(%rsi)                                #195.5
..LN1363:
	.loc    1  196  is_stmt 1
        vmovsd    8+p(%rsi), %xmm0                              #196.5
..LN1364:
        vfnmadd231sd %xmm6, %xmm1, %xmm0                        #196.5
..LN1365:
	.loc    1  197  is_stmt 1
        vmovsd    16+p(%rsi), %xmm1                             #197.5
..LN1366:
        vfnmadd213sd %xmm1, %xmm2, %xmm6                        #197.5
..LN1367:
	.loc    1  196  is_stmt 1
        vmovsd    %xmm0, 8+p(%rsi)                              #196.5
..LN1368:
	.loc    1  197  is_stmt 1
        vmovsd    %xmm6, 16+p(%rsi)                             #197.5
..LN1369:
                                # LOE rax rdx rbx rbp r12 r13 r14 r15 xmm3 xmm4 xmm5
..B3.5:                         # Preds ..B3.3 ..B3.4
..LN1370:
	.loc    1  182  is_stmt 1
        incq      %rax                                          #182.3
..LN1371:
        cmpq      %rdx, %rax                                    #182.3
..LN1372:
        jb        ..B3.3        # Prob 99%                      #182.3
..LN1373:
                                # LOE rax rdx rbx rbp r12 r13 r14 r15 xmm3 xmm4 xmm5
..B3.7:                         # Preds ..B3.5 ..B3.1
..LN1374:
	.loc    1  199  epilogue_begin  is_stmt 1
        ret                                                     #199.1
        .align    16,0x90
..LN1375:
                                # LOE
..LN1376:
	.cfi_endproc
# mark_end;
	.type	force_pair(),@function
	.size	force_pair(),.-force_pair()
..LN_Z10force_pairv.1377:
.LN_Z10force_pairv:
	.data
# -- End  force_pair()
	.text
.L_2__routine_start__Z14force_pair_swpv_3:
# -- Begin  force_pair_swp()
	.text
# mark_begin;
       .align    16,0x90
	.globl force_pair_swp()
# --- force_pair_swp()
force_pair_swp():
..B4.1:                         # Preds ..B4.0
	.cfi_startproc
	.cfi_personality 0x3,__gxx_personality_v0
..___tag_value__Z14force_pair_swpv.336:
..L337:
                                                        #202.22
..LN1378:
	.loc    1  202  prologue_end  is_stmt 1
..LN1379:
	.loc    1  205  is_stmt 1
        movslq    j_particles(%rip), %rax                       #205.13
..LN1380:
	.loc    1  206  is_stmt 1
        movq      %rax, %rcx                                    #206.17
..LN1381:
	.loc    1  204  is_stmt 1
        movslq    i_particles(%rip), %rdx                       #204.13
..LN1382:
	.loc    1  206  is_stmt 1
        movq      %rdx, %rsi                                    #206.29
..LN1383:
        shlq      $5, %rcx                                      #206.17
..LN1384:
        shlq      $5, %rsi                                      #206.29
..LN1385:
	.loc    1  224  is_stmt 1
        vmovsd    .L_2il0floatpacket.37(%rip), %xmm8            #224.14
..LN1386:
	.loc    1  206  is_stmt 1
        vmovsd    q(%rcx), %xmm2                                #206.17
..LN1387:
	.loc    1  207  is_stmt 1
        vmovsd    8+q(%rcx), %xmm1                              #207.17
..LN1388:
	.loc    1  208  is_stmt 1
        vmovsd    16+q(%rcx), %xmm0                             #208.17
..LN1389:
	.loc    1  212  is_stmt 1
        movslq    number_of_pairs(%rip), %rcx                   #212.19
..LN1390:
	.loc    1  206  is_stmt 1
        vsubsd    q(%rsi), %xmm2, %xmm2                         #206.29
..LN1391:
	.loc    1  207  is_stmt 1
        vsubsd    8+q(%rsi), %xmm1, %xmm1                       #207.29
..LN1392:
	.loc    1  208  is_stmt 1
        vsubsd    16+q(%rsi), %xmm0, %xmm0                      #208.29
..LN1393:
	.loc    1  212  is_stmt 1
        movl      $1, %esi                                      #212.8
..LN1394:
        cmpq      $1, %rcx                                      #212.19
..LN1395:
        jle       ..B4.8        # Prob 10%                      #212.19
..LN1396:
                                # LOE rax rdx rcx rbx rbp rsi r12 r13 r14 r15 xmm0 xmm1 xmm2 xmm8
..B4.2:                         # Preds ..B4.1
..LN1397:
	.loc    1  223  is_stmt 1
        vmovsd    .L_2il0floatpacket.38(%rip), %xmm7            #223.50
..LN1398:
        vmovsd    .L_2il0floatpacket.39(%rip), %xmm3            #223.12
..LN1399:
                                # LOE rax rdx rcx rbx rbp rsi r12 r13 r14 r15 xmm0 xmm1 xmm2 xmm3 xmm7 xmm8
..B4.3:                         # Preds ..B4.6 ..B4.2
..L339:         # optimization report
                # %s was not vectorized: vector dependence prevents vectorization%s
                # VECTOR TRIP COUNT IS ESTIMATED CONSTANT
..LN1400:
	.loc    1  214  is_stmt 1
        vmovapd   %xmm1, %xmm5                                  #214.5
..LN1401:
	.loc    1  221  is_stmt 1
        vmulsd    %xmm5, %xmm5, %xmm10                          #221.45
..LN1402:
	.loc    1  213  is_stmt 1
        vmovapd   %xmm2, %xmm6                                  #213.5
..LN1403:
	.loc    1  221  is_stmt 1
        vfmadd231sd %xmm6, %xmm6, %xmm10                        #221.59
..LN1404:
	.loc    1  215  is_stmt 1
        vmovapd   %xmm0, %xmm4                                  #215.5
..LN1405:
	.loc    1  221  is_stmt 1
        vfmadd231sd %xmm4, %xmm4, %xmm10                        #221.59
..LN1406:
	.loc    1  217  is_stmt 1
        movslq    j_particles(,%rsi,4), %r10                    #217.11
..LN1407:
	.loc    1  218  is_stmt 1
        movq      %r10, %rdi                                    #218.12
..LN1408:
	.loc    1  216  is_stmt 1
        movslq    i_particles(,%rsi,4), %r9                     #216.11
..LN1409:
	.loc    1  218  is_stmt 1
        movq      %r9, %r8                                      #218.24
..LN1410:
        shlq      $5, %rdi                                      #218.12
..LN1411:
	.loc    1  222  is_stmt 1
        vmulsd    %xmm10, %xmm10, %xmm9                         #222.28
..LN1412:
	.loc    1  218  is_stmt 1
        shlq      $5, %r8                                       #218.24
..LN1413:
        vmovsd    q(%rdi), %xmm2                                #218.12
..LN1414:
	.loc    1  219  is_stmt 1
        vmovsd    8+q(%rdi), %xmm1                              #219.12
..LN1415:
	.loc    1  220  is_stmt 1
        vmovsd    16+q(%rdi), %xmm0                             #220.12
..LN1416:
	.loc    1  222  is_stmt 1
        vmulsd    %xmm10, %xmm9, %xmm9                          #222.33
..LN1417:
	.loc    1  218  is_stmt 1
        vsubsd    q(%r8), %xmm2, %xmm2                          #218.24
..LN1418:
	.loc    1  219  is_stmt 1
        vsubsd    8+q(%r8), %xmm1, %xmm1                        #219.24
..LN1419:
	.loc    1  220  is_stmt 1
        vsubsd    16+q(%r8), %xmm0, %xmm0                       #220.24
..LN1420:
	.loc    1  224  is_stmt 1
        vcomisd   %xmm8, %xmm10                                 #224.14
..LN1421:
        jbe       ..B4.5        # Prob 50%                      #224.14
..LN1422:
                                # LOE rax rdx rcx rbx rbp rsi r9 r10 r12 r13 r14 r15 xmm0 xmm1 xmm2 xmm3 xmm4 xmm5 xmm6 xmm7 xmm8 xmm9 xmm10
..B4.4:                         # Preds ..B4.3
..LN1423:
        vxorpd    %xmm13, %xmm13, %xmm13                        #224.19
..LN1424:
        jmp       ..B4.6        # Prob 100%                     #224.19
..LN1425:
                                # LOE rax rdx rcx rbx rbp rsi r9 r10 r12 r13 r14 r15 xmm0 xmm1 xmm2 xmm3 xmm4 xmm5 xmm6 xmm7 xmm8 xmm13
..B4.5:                         # Preds ..B4.3
..LN1426:
	.loc    1  223  is_stmt 1
        vmulsd    %xmm9, %xmm10, %xmm10                         #223.38
..LN1427:
        vmovsd    .L_2il0floatpacket.40(%rip), %xmm11           #223.5
..LN1428:
        vfmsub231sd %xmm9, %xmm3, %xmm11                        #223.5
..LN1429:
        vmulsd    %xmm9, %xmm10, %xmm9                          #223.43
..LN1430:
        vdivsd    %xmm9, %xmm11, %xmm12                         #223.43
..LN1431:
        vmulsd    %xmm12, %xmm7, %xmm13                         #223.50
..LN1432:
                                # LOE rax rdx rcx rbx rbp rsi r9 r10 r12 r13 r14 r15 xmm0 xmm1 xmm2 xmm3 xmm4 xmm5 xmm6 xmm7 xmm8 xmm13
..B4.6:                         # Preds ..B4.4 ..B4.5
..LN1433:
	.loc    1  225  is_stmt 1
        shlq      $5, %rdx                                      #225.5
..LN1434:
	.loc    1  212  is_stmt 1
        incq      %rsi                                          #212.36
..LN1435:
	.loc    1  228  is_stmt 1
        shlq      $5, %rax                                      #228.5
..LN1436:
	.loc    1  225  is_stmt 1
        vmovsd    p(%rdx), %xmm9                                #225.5
..LN1437:
	.loc    1  226  is_stmt 1
        vmovsd    8+p(%rdx), %xmm10                             #226.5
..LN1438:
	.loc    1  227  is_stmt 1
        vmovsd    16+p(%rdx), %xmm11                            #227.5
..LN1439:
	.loc    1  225  is_stmt 1
        vfmadd231sd %xmm6, %xmm13, %xmm9                        #225.5
..LN1440:
	.loc    1  226  is_stmt 1
        vfmadd231sd %xmm13, %xmm5, %xmm10                       #226.5
..LN1441:
	.loc    1  227  is_stmt 1
        vfmadd231sd %xmm13, %xmm4, %xmm11                       #227.5
..LN1442:
	.loc    1  225  is_stmt 1
        vmovsd    %xmm9, p(%rdx)                                #225.5
..LN1443:
	.loc    1  226  is_stmt 1
        vmovsd    %xmm10, 8+p(%rdx)                             #226.5
..LN1444:
	.loc    1  227  is_stmt 1
        vmovsd    %xmm11, 16+p(%rdx)                            #227.5
..LN1445:
	.loc    1  228  is_stmt 1
        vmovsd    p(%rax), %xmm12                               #228.5
..LN1446:
	.loc    1  231  is_stmt 1
        movq      %r9, %rdx                                     #231.5
..LN1447:
	.loc    1  228  is_stmt 1
        vfnmadd213sd %xmm12, %xmm13, %xmm6                      #228.5
..LN1448:
        vmovsd    %xmm6, p(%rax)                                #228.5
..LN1449:
	.loc    1  229  is_stmt 1
        vmovsd    8+p(%rax), %xmm6                              #229.5
..LN1450:
        vfnmadd231sd %xmm13, %xmm5, %xmm6                       #229.5
..LN1451:
	.loc    1  230  is_stmt 1
        vmovsd    16+p(%rax), %xmm5                             #230.5
..LN1452:
        vfnmadd213sd %xmm5, %xmm4, %xmm13                       #230.5
..LN1453:
	.loc    1  229  is_stmt 1
        vmovsd    %xmm6, 8+p(%rax)                              #229.5
..LN1454:
	.loc    1  230  is_stmt 1
        vmovsd    %xmm13, 16+p(%rax)                            #230.5
..LN1455:
	.loc    1  232  is_stmt 1
        movq      %r10, %rax                                    #232.5
..LN1456:
	.loc    1  212  is_stmt 1
        cmpq      %rcx, %rsi                                    #212.19
..LN1457:
        jl        ..B4.3        # Prob 99%                      #212.19
..LN1458:
                                # LOE rax rdx rcx rbx rbp rsi r12 r13 r14 r15 xmm0 xmm1 xmm2 xmm3 xmm7 xmm8
..B4.8:                         # Preds ..B4.6 ..B4.1
..LN1459:
	.loc    1  237  is_stmt 1
        vmulsd    %xmm1, %xmm1, %xmm4                           #237.43
..LN1460:
        vfmadd231sd %xmm2, %xmm2, %xmm4                         #237.57
..LN1461:
        vfmadd231sd %xmm0, %xmm0, %xmm4                         #237.57
..LN1462:
	.loc    1  238  is_stmt 1
        vmulsd    %xmm4, %xmm4, %xmm3                           #238.26
..LN1463:
	.loc    1  240  is_stmt 1
        vcomisd   %xmm8, %xmm4                                  #240.12
..LN1464:
	.loc    1  238  is_stmt 1
        vmulsd    %xmm4, %xmm3, %xmm3                           #238.31
..LN1465:
	.loc    1  240  is_stmt 1
        jbe       ..B4.10       # Prob 50%                      #240.12
..LN1466:
                                # LOE rax rdx rbx rbp r12 r13 r14 r15 xmm0 xmm1 xmm2 xmm3 xmm4
..B4.9:                         # Preds ..B4.8
..LN1467:
        vxorpd    %xmm7, %xmm7, %xmm7                           #240.17
..LN1468:
        jmp       ..B4.11       # Prob 100%                     #240.17
..LN1469:
                                # LOE rax rdx rbx rbp r12 r13 r14 r15 xmm0 xmm1 xmm2 xmm7
..B4.10:                        # Preds ..B4.8
..LN1470:
	.loc    1  239  is_stmt 1
        vmulsd    %xmm3, %xmm4, %xmm4                           #239.36
..LN1471:
        vmovsd    .L_2il0floatpacket.39(%rip), %xmm5            #239.10
..LN1472:
        vfmsub213sd .L_2il0floatpacket.40(%rip), %xmm3, %xmm5   #239.3
..LN1473:
        vmulsd    %xmm3, %xmm4, %xmm3                           #239.41
..LN1474:
        vdivsd    %xmm3, %xmm5, %xmm6                           #239.41
..LN1475:
        vmulsd    .L_2il0floatpacket.38(%rip), %xmm6, %xmm7     #239.48
..LN1476:
                                # LOE rax rdx rbx rbp r12 r13 r14 r15 xmm0 xmm1 xmm2 xmm7
..B4.11:                        # Preds ..B4.9 ..B4.10
..LN1477:
	.loc    1  241  is_stmt 1
        shlq      $5, %rdx                                      #241.3
..LN1478:
	.loc    1  244  is_stmt 1
        shlq      $5, %rax                                      #244.3
..LN1479:
	.loc    1  241  is_stmt 1
        vmovsd    p(%rdx), %xmm3                                #241.3
..LN1480:
	.loc    1  242  is_stmt 1
        vmovsd    8+p(%rdx), %xmm4                              #242.3
..LN1481:
	.loc    1  243  is_stmt 1
        vmovsd    16+p(%rdx), %xmm5                             #243.3
..LN1482:
	.loc    1  241  is_stmt 1
        vfmadd231sd %xmm2, %xmm7, %xmm3                         #241.3
..LN1483:
	.loc    1  242  is_stmt 1
        vfmadd231sd %xmm7, %xmm1, %xmm4                         #242.3
..LN1484:
	.loc    1  243  is_stmt 1
        vfmadd231sd %xmm7, %xmm0, %xmm5                         #243.3
..LN1485:
	.loc    1  241  is_stmt 1
        vmovsd    %xmm3, p(%rdx)                                #241.3
..LN1486:
	.loc    1  242  is_stmt 1
        vmovsd    %xmm4, 8+p(%rdx)                              #242.3
..LN1487:
	.loc    1  243  is_stmt 1
        vmovsd    %xmm5, 16+p(%rdx)                             #243.3
..LN1488:
	.loc    1  244  is_stmt 1
        vmovsd    p(%rax), %xmm6                                #244.3
..LN1489:
        vfnmadd213sd %xmm6, %xmm7, %xmm2                        #244.3
..LN1490:
        vmovsd    %xmm2, p(%rax)                                #244.3
..LN1491:
	.loc    1  245  is_stmt 1
        vmovsd    8+p(%rax), %xmm2                              #245.3
..LN1492:
        vfnmadd231sd %xmm7, %xmm1, %xmm2                        #245.3
..LN1493:
	.loc    1  246  is_stmt 1
        vmovsd    16+p(%rax), %xmm1                             #246.3
..LN1494:
        vfnmadd213sd %xmm1, %xmm0, %xmm7                        #246.3
..LN1495:
	.loc    1  245  is_stmt 1
        vmovsd    %xmm2, 8+p(%rax)                              #245.3
..LN1496:
	.loc    1  246  is_stmt 1
        vmovsd    %xmm7, 16+p(%rax)                             #246.3
..LN1497:
	.loc    1  247  epilogue_begin  is_stmt 1
        ret                                                     #247.1
        .align    16,0x90
..LN1498:
                                # LOE
..LN1499:
	.cfi_endproc
# mark_end;
	.type	force_pair_swp(),@function
	.size	force_pair_swp(),.-force_pair_swp()
..LN_Z14force_pair_swpv.1500:
.LN_Z14force_pair_swpv:
	.data
# -- End  force_pair_swp()
	.text
.L_2__routine_start__Z21force_pair_swp_intrinv_4:
# -- Begin  force_pair_swp_intrin()
	.text
# mark_begin;
       .align    16,0x90
	.globl force_pair_swp_intrin()
# --- force_pair_swp_intrin()
force_pair_swp_intrin():
..B5.1:                         # Preds ..B5.0
..L359:         # optimization report
                # LOOP WAS DISTRIBUTED, CHUNK 2
                # LOOP WAS COMPLETELY UNROLLED BY 1
                # LOOP WAS VECTORIZED
                # CILK PLUS ARRAY NOTATION LOOP
                # VECTORIZATION SPEEDUP COEFFECIENT 5.046875
                # LOOP HAS ONE VECTOR ITERATION
                # VECTOR LENGTH 4
                # MAIN VECTOR TYPE: 64-bits floating point
..L358:         # optimization report
                # LOOP WAS DISTRIBUTED, CHUNK 1
                # LOOP WAS COMPLETELY UNROLLED BY 1
                # LOOP WAS VECTORIZED
                # CILK PLUS ARRAY NOTATION LOOP
                # VECTORIZATION SPEEDUP COEFFECIENT 3.000000
                # LOOP HAS ONE VECTOR ITERATION
                # VECTOR LENGTH 4
                # MAIN VECTOR TYPE: 64-bits floating point
..L357:         # optimization report
                # LOOP WAS FUSED
                # LOOP WAS COMPLETELY UNROLLED BY 1
                # LOOP WAS VECTORIZED
                # CILK PLUS ARRAY NOTATION LOOP
                # VECTORIZATION SPEEDUP COEFFECIENT 2.933594
                # LOOP HAS ONE VECTOR ITERATION
                # VECTOR LENGTH 4
                # MAIN VECTOR TYPE: 64-bits floating point
	.cfi_startproc
	.cfi_personality 0x3,__gxx_personality_v0
..___tag_value__Z21force_pair_swp_intrinv.344:
..L345:
                                                        #252.29
..LN1501:
	.loc    1  252  is_stmt 1
        pushq     %r12                                          #252.29
	.cfi_def_cfa_offset 16
	.cfi_offset 12, -16
..LN1502:
        pushq     %r13                                          #252.29
	.cfi_def_cfa_offset 24
	.cfi_offset 13, -24
..LN1503:
        pushq     %r14                                          #252.29
	.cfi_def_cfa_offset 32
	.cfi_offset 14, -32
..LN1504:
        pushq     %r15                                          #252.29
	.cfi_def_cfa_offset 40
	.cfi_offset 15, -40
..LN1505:
        pushq     %rbx                                          #252.29
	.cfi_def_cfa_offset 48
	.cfi_offset 3, -48
..LN1506:
	.loc    1  258  prologue_end  is_stmt 1
        movslq    i_particles(%rip), %rdi                       #258.14
..LN1507:
	.loc    1  266  is_stmt 1
        movq      %rdi, %r9                                     #266.42
..LN1508:
        shlq      $5, %r9                                       #266.42
..LN1509:
	.loc    1  260  is_stmt 1
        movslq    4+i_particles(%rip), %rcx                     #260.14
..LN1510:
	.loc    1  261  is_stmt 1
        movslq    4+j_particles(%rip), %rbx                     #261.14
..LN1511:
	.loc    1  262  is_stmt 1
        movslq    8+i_particles(%rip), %rsi                     #262.14
..LN1512:
	.loc    1  266  is_stmt 1
        vmovupd   q(%r9), %ymm4                                 #266.42
..LN1513:
	.loc    1  270  is_stmt 1
        movq      %rcx, %r9                                     #270.42
..LN1514:
	.loc    1  254  is_stmt 1
        vmovupd   .L_2il0floatpacket.41(%rip), %ymm6            #254.21
..LN1515:
	.loc    1  255  is_stmt 1
        vmovupd   .L_2il0floatpacket.42(%rip), %ymm5            #255.21
..LN1516:
	.loc    1  270  is_stmt 1
        shlq      $5, %r9                                       #270.42
..LN1517:
	.loc    1  263  is_stmt 1
        movslq    8+j_particles(%rip), %rdx                     #263.14
..LN1518:
	.loc    1  264  is_stmt 1
        movslq    12+i_particles(%rip), %r13                    #264.14
..LN1519:
	.loc    1  259  is_stmt 1
        movslq    j_particles(%rip), %r8                        #259.14
..LN1520:
	.loc    1  267  is_stmt 1
        movq      %r8, %r10                                     #267.42
..LN1521:
	.loc    1  270  is_stmt 1
        vmovupd   q(%r9), %ymm2                                 #270.42
..LN1522:
	.loc    1  271  is_stmt 1
        movq      %rbx, %r9                                     #271.42
..LN1523:
        shlq      $5, %r9                                       #271.42
..LN1524:
	.loc    1  265  is_stmt 1
        movslq    12+j_particles(%rip), %r11                    #265.14
..LN1525:
	.loc    1  267  is_stmt 1
        shlq      $5, %r10                                      #267.42
..LN1526:
	.loc    1  253  is_stmt 1
        vxorpd    %ymm11, %ymm11, %ymm11                        #253.22
..LN1527:
	.loc    1  271  is_stmt 1
        vmovupd   q(%r9), %ymm1                                 #271.42
..LN1528:
	.loc    1  274  is_stmt 1
        movq      %rsi, %r9                                     #274.42
..LN1529:
	.loc    1  267  is_stmt 1
        vmovupd   q(%r10), %ymm3                                #267.42
..LN1530:
	.loc    1  274  is_stmt 1
        shlq      $5, %r9                                       #274.42
..LN1531:
        vmovupd   q(%r9), %ymm0                                 #274.42
..LN1532:
	.loc    1  275  is_stmt 1
        movq      %rdx, %r9                                     #275.42
..LN1533:
        shlq      $5, %r9                                       #275.42
..LN1534:
        vmovupd   q(%r9), %ymm7                                 #275.42
..LN1535:
	.loc    1  278  is_stmt 1
        movq      %r13, %r9                                     #278.42
..LN1536:
        shlq      $5, %r9                                       #278.42
..LN1537:
        vmovupd   q(%r9), %ymm8                                 #278.42
..LN1538:
	.loc    1  279  is_stmt 1
        movq      %r11, %r9                                     #279.42
..LN1539:
        shlq      $5, %r9                                       #279.42
..LN1540:
        vmovupd   q(%r9), %ymm9                                 #279.42
..LN1541:
	.loc    1  256  is_stmt 1
        vmovupd   .L_2il0floatpacket.43(%rip), %ymm10           #256.21
..LN1542:
	.loc    1  292  is_stmt 1
        xorl      %r9d, %r9d                                    #292.3
..LN1543:
        movl      number_of_pairs(%rip), %r14d                  #292.19
..LN1544:
        movl      %r14d, %r10d                                  #292.39
..LN1545:
        sarl      $1, %r10d                                     #292.39
..LN1546:
        xorl      %eax, %eax                                    #292.3
..LN1547:
        shrl      $30, %r10d                                    #292.39
..LN1548:
        addl      %r14d, %r10d                                  #292.39
..LN1549:
        sarl      $2, %r10d                                     #292.39
..LN1550:
	.loc    1  280  is_stmt 1
        vsubpd    %ymm8, %ymm9, %ymm9                           #280.26
..LN1551:
	.loc    1  276  is_stmt 1
        vsubpd    %ymm0, %ymm7, %ymm8                           #276.26
..LN1552:
	.loc    1  272  is_stmt 1
        vsubpd    %ymm2, %ymm1, %ymm7                           #272.26
..LN1553:
	.loc    1  268  is_stmt 1
        vsubpd    %ymm4, %ymm3, %ymm4                           #268.26
..LN1554:
	.loc    1  292  is_stmt 1
        lea       (,%r10,4), %r15d                              #292.43
..LN1555:
        cmpl      $4, %r15d                                     #292.43
..LN1556:
        jle       ..B5.5        # Prob 15%                      #292.43
..LN1557:
                                # LOE rax rdx rcx rbx rbp rsi rdi r8 r9 r11 r12 r13 r10d r14d ymm4 ymm5 ymm6 ymm7 ymm8 ymm9 ymm10 ymm11
..B5.2:                         # Preds ..B5.1
..LN1558:
        movl      %r10d, -56(%rsp)                              #292.3
..LN1559:
        lea       -1(,%r10,4), %r15d                            #292.43
..LN1560:
        sarl      $1, %r15d                                     #292.43
..LN1561:
        shrl      $30, %r15d                                    #292.43
..LN1562:
        movl      %r14d, -64(%rsp)                              #292.3
..LN1563:
        lea       -1(%r15,%r10,4), %r15d                        #292.43
..LN1564:
        sarl      $2, %r15d                                     #292.43
..LN1565:
        movslq    %r15d, %r15                                   #292.3
..LN1566:
        movq      %r15, -48(%rsp)                               #292.3
..LN1567:
                                # LOE rax rdx rcx rbx rbp rsi rdi r8 r9 r11 r13 ymm4 ymm7 ymm8 ymm9 ymm10 ymm11
..B5.3:                         # Preds ..B5.3 ..B5.2
..L385:         # optimization report
                # LOOP WAS COMPLETELY UNROLLED BY 1
                # LOOP WAS VECTORIZED
                # CILK PLUS ARRAY NOTATION LOOP
                # VECTORIZATION SPEEDUP COEFFECIENT 4.925781
                # LOOP HAS ONE VECTOR ITERATION
                # VECTOR LENGTH 4
                # MAIN VECTOR TYPE: 64-bits floating point
..L384:         # optimization report
                # LOOP WAS COMPLETELY UNROLLED BY 1
                # LOOP WAS VECTORIZED
                # CILK PLUS ARRAY NOTATION LOOP
                # VECTORIZATION SPEEDUP COEFFECIENT 4.925781
                # LOOP HAS ONE VECTOR ITERATION
                # VECTOR LENGTH 4
                # MAIN VECTOR TYPE: 64-bits floating point
..L383:         # optimization report
                # LOOP WAS COMPLETELY UNROLLED BY 1
                # LOOP WAS VECTORIZED
                # CILK PLUS ARRAY NOTATION LOOP
                # VECTORIZATION SPEEDUP COEFFECIENT 4.925781
                # LOOP HAS ONE VECTOR ITERATION
                # VECTOR LENGTH 4
                # MAIN VECTOR TYPE: 64-bits floating point
..L382:         # optimization report
                # LOOP WAS COMPLETELY UNROLLED BY 1
                # LOOP WAS VECTORIZED
                # CILK PLUS ARRAY NOTATION LOOP
                # VECTORIZATION SPEEDUP COEFFECIENT 4.925781
                # LOOP HAS ONE VECTOR ITERATION
                # VECTOR LENGTH 4
                # MAIN VECTOR TYPE: 64-bits floating point
..L381:         # optimization report
                # LOOP WAS COMPLETELY UNROLLED BY 1
                # LOOP WAS VECTORIZED
                # CILK PLUS ARRAY NOTATION LOOP
                # VECTORIZATION SPEEDUP COEFFECIENT 4.925781
                # LOOP HAS ONE VECTOR ITERATION
                # VECTOR LENGTH 4
                # MAIN VECTOR TYPE: 64-bits floating point
..L380:         # optimization report
                # LOOP WAS COMPLETELY UNROLLED BY 1
                # LOOP WAS VECTORIZED
                # CILK PLUS ARRAY NOTATION LOOP
                # VECTORIZATION SPEEDUP COEFFECIENT 4.925781
                # LOOP HAS ONE VECTOR ITERATION
                # VECTOR LENGTH 4
                # MAIN VECTOR TYPE: 64-bits floating point
..L379:         # optimization report
                # LOOP WAS COMPLETELY UNROLLED BY 1
                # LOOP WAS VECTORIZED
                # CILK PLUS ARRAY NOTATION LOOP
                # VECTORIZATION SPEEDUP COEFFECIENT 4.925781
                # LOOP HAS ONE VECTOR ITERATION
                # VECTOR LENGTH 4
                # MAIN VECTOR TYPE: 64-bits floating point
..L378:         # optimization report
                # LOOP WAS COMPLETELY UNROLLED BY 1
                # LOOP WAS VECTORIZED
                # CILK PLUS ARRAY NOTATION LOOP
                # VECTORIZATION SPEEDUP COEFFECIENT 5.000000
                # LOOP HAS ONE VECTOR ITERATION
                # VECTOR LENGTH 4
                # MAIN VECTOR TYPE: 64-bits floating point
..L377:         # optimization report
                # LOOP WAS COMPLETELY UNROLLED BY 1
                # LOOP WAS VECTORIZED
                # CILK PLUS ARRAY NOTATION LOOP
                # VECTORIZATION SPEEDUP COEFFECIENT 4.667969
                # LOOP HAS ONE VECTOR ITERATION
                # VECTOR LENGTH 4
                # MAIN VECTOR TYPE: 64-bits floating point
..L376:         # optimization report
                # LOOP WAS COMPLETELY UNROLLED BY 1
                # LOOP WAS VECTORIZED
                # CILK PLUS ARRAY NOTATION LOOP
                # VECTORIZATION SPEEDUP COEFFECIENT 4.667969
                # LOOP HAS ONE VECTOR ITERATION
                # VECTOR LENGTH 4
                # MAIN VECTOR TYPE: 64-bits floating point
..L375:         # optimization report
                # LOOP WAS COMPLETELY UNROLLED BY 1
                # LOOP WAS VECTORIZED
                # CILK PLUS ARRAY NOTATION LOOP
                # VECTORIZATION SPEEDUP COEFFECIENT 4.667969
                # LOOP HAS ONE VECTOR ITERATION
                # VECTOR LENGTH 4
                # MAIN VECTOR TYPE: 64-bits floating point
..L374:         # optimization report
                # LOOP WAS COMPLETELY UNROLLED BY 1
                # LOOP WAS VECTORIZED
                # CILK PLUS ARRAY NOTATION LOOP
                # VECTORIZATION SPEEDUP COEFFECIENT 4.667969
                # LOOP HAS ONE VECTOR ITERATION
                # VECTOR LENGTH 4
                # MAIN VECTOR TYPE: 64-bits floating point
..L373:         # optimization report
                # LOOP STMTS WERE REORDERED
                # LOOP WAS COMPLETELY UNROLLED BY 1
                # LOOP WAS VECTORIZED
                # CILK PLUS ARRAY NOTATION LOOP
                # VECTORIZATION SPEEDUP COEFFECIENT 4.242188
                # LOOP HAS ONE VECTOR ITERATION
                # VECTOR LENGTH 4
                # MAIN VECTOR TYPE: 64-bits floating point
..L372:         # optimization report
                # LOOP STMTS WERE REORDERED
                # LOOP WAS COMPLETELY UNROLLED BY 1
                # LOOP WAS VECTORIZED
                # CILK PLUS ARRAY NOTATION LOOP
                # VECTORIZATION SPEEDUP COEFFECIENT 2.933594
                # LOOP HAS ONE VECTOR ITERATION
                # VECTOR LENGTH 4
                # MAIN VECTOR TYPE: 64-bits floating point
..L371:         # optimization report
                # LOOP WAS COMPLETELY UNROLLED BY 1
                # LOOP WAS VECTORIZED
                # CILK PLUS ARRAY NOTATION LOOP
                # VECTORIZATION SPEEDUP COEFFECIENT 2.933594
                # LOOP HAS ONE VECTOR ITERATION
                # VECTOR LENGTH 4
                # MAIN VECTOR TYPE: 64-bits floating point
..L370:         # optimization report
                # LOOP STMTS WERE REORDERED
                # LOOP WAS COMPLETELY UNROLLED BY 1
                # LOOP WAS VECTORIZED
                # CILK PLUS ARRAY NOTATION LOOP
                # VECTORIZATION SPEEDUP COEFFECIENT 5.000000
                # LOOP HAS ONE VECTOR ITERATION
                # VECTOR LENGTH 4
                # MAIN VECTOR TYPE: 64-bits floating point
..L369:         # optimization report
                # LOOP WAS COMPLETELY UNROLLED BY 1
                # LOOP WAS VECTORIZED
                # CILK PLUS ARRAY NOTATION LOOP
                # VECTORIZATION SPEEDUP COEFFECIENT 4.667969
                # LOOP HAS ONE VECTOR ITERATION
                # VECTOR LENGTH 4
                # MAIN VECTOR TYPE: 64-bits floating point
..L368:         # optimization report
                # LOOP STMTS WERE REORDERED
                # LOOP WAS COMPLETELY UNROLLED BY 1
                # LOOP WAS VECTORIZED
                # CILK PLUS ARRAY NOTATION LOOP
                # VECTORIZATION SPEEDUP COEFFECIENT 5.113281
                # LOOP HAS ONE VECTOR ITERATION
                # VECTOR LENGTH 4
                # MAIN VECTOR TYPE: 64-bits floating point
..L367:         # optimization report
                # LOOP WAS COMPLETELY UNROLLED BY 1
                # LOOP WAS VECTORIZED
                # CILK PLUS ARRAY NOTATION LOOP
                # VECTORIZATION SPEEDUP COEFFECIENT 4.667969
                # LOOP HAS ONE VECTOR ITERATION
                # VECTOR LENGTH 4
                # MAIN VECTOR TYPE: 64-bits floating point
..L366:         # optimization report
                # LOOP STMTS WERE REORDERED
                # LOOP WAS COMPLETELY UNROLLED BY 1
                # LOOP WAS VECTORIZED
                # CILK PLUS ARRAY NOTATION LOOP
                # VECTORIZATION SPEEDUP COEFFECIENT 5.113281
                # LOOP HAS ONE VECTOR ITERATION
                # VECTOR LENGTH 4
                # MAIN VECTOR TYPE: 64-bits floating point
..L365:         # optimization report
                # LOOP WAS COMPLETELY UNROLLED BY 1
                # LOOP WAS VECTORIZED
                # CILK PLUS ARRAY NOTATION LOOP
                # VECTORIZATION SPEEDUP COEFFECIENT 4.667969
                # LOOP HAS ONE VECTOR ITERATION
                # VECTOR LENGTH 4
                # MAIN VECTOR TYPE: 64-bits floating point
..L364:         # optimization report
                # LOOP STMTS WERE REORDERED
                # LOOP WAS COMPLETELY UNROLLED BY 1
                # LOOP WAS VECTORIZED
                # CILK PLUS ARRAY NOTATION LOOP
                # VECTORIZATION SPEEDUP COEFFECIENT 5.113281
                # LOOP HAS ONE VECTOR ITERATION
                # VECTOR LENGTH 4
                # MAIN VECTOR TYPE: 64-bits floating point
..L363:         # optimization report
                # LOOP WAS COMPLETELY UNROLLED BY 1
                # LOOP WAS VECTORIZED
                # CILK PLUS ARRAY NOTATION LOOP
                # VECTORIZATION SPEEDUP COEFFECIENT 4.667969
                # LOOP HAS ONE VECTOR ITERATION
                # VECTOR LENGTH 4
                # MAIN VECTOR TYPE: 64-bits floating point
..L362:         # optimization report
                # LOOP WAS DISTRIBUTED, CHUNK 2
                # LOOP WAS COMPLETELY UNROLLED BY 1
                # LOOP WAS VECTORIZED
                # CILK PLUS ARRAY NOTATION LOOP
                # VECTORIZATION SPEEDUP COEFFECIENT 5.093750
                # LOOP HAS ONE VECTOR ITERATION
                # VECTOR LENGTH 4
                # MAIN VECTOR TYPE: 64-bits floating point
..L361:         # optimization report
                # LOOP WAS DISTRIBUTED, CHUNK 1
                # LOOP WAS COMPLETELY UNROLLED BY 1
                # LOOP WAS VECTORIZED
                # CILK PLUS ARRAY NOTATION LOOP
                # VECTORIZATION SPEEDUP COEFFECIENT 4.984375
                # LOOP HAS ONE VECTOR ITERATION
                # VECTOR LENGTH 4
                # MAIN VECTOR TYPE: 64-bits floating point
..L360:         # optimization report
                # LOOP WITH USER VECTOR INTRINSICS
                # %s was not vectorized: inner loop was already vectorized
..LN1568:
        movq      %rax, -40(%rsp)                               #
..LN1569:
        movq      %r13, -32(%rsp)                               #
..LN1570:
        movq      %r11, -24(%rsp)                               #
..LN1571:
        movq      %r9, -16(%rsp)                                #
..LN1572:
	.loc    1  298  is_stmt 1
        movslq    16+i_particles(%rax), %r14                    #298.12
..LN1573:
        movq      %r14, -8(%rsp)                                #298.12
..LN1574:
	.loc    1  307  is_stmt 1
        shlq      $5, %r14                                      #307.44
..LN1575:
	.loc    1  299  is_stmt 1
        movslq    16+j_particles(%rax), %r13                    #299.12
..LN1576:
	.loc    1  300  is_stmt 1
        movslq    20+i_particles(%rax), %r9                     #300.12
..LN1577:
	.loc    1  301  is_stmt 1
        movslq    20+j_particles(%rax), %r15                    #301.12
..LN1578:
	.loc    1  307  is_stmt 1
        vmovupd   q(%r14), %ymm3                                #307.44
..LN1579:
	.loc    1  308  is_stmt 1
        movq      %r13, %r14                                    #308.44
..LN1580:
        shlq      $5, %r14                                      #308.44
..LN1581:
	.loc    1  302  is_stmt 1
        movslq    24+i_particles(%rax), %r12                    #302.12
..LN1582:
	.loc    1  303  is_stmt 1
        movslq    24+j_particles(%rax), %r10                    #303.12
..LN1583:
	.loc    1  304  is_stmt 1
        movslq    28+i_particles(%rax), %r11                    #304.12
..LN1584:
	.loc    1  308  is_stmt 1
        vmovupd   q(%r14), %ymm1                                #308.44
..LN1585:
	.loc    1  311  is_stmt 1
        movq      %r9, %r14                                     #311.44
..LN1586:
        shlq      $5, %r14                                      #311.44
..LN1587:
	.loc    1  305  is_stmt 1
        movslq    28+j_particles(%rax), %rax                    #305.12
..LN1588:
	.loc    1  311  is_stmt 1
        vmovupd   q(%r14), %ymm0                                #311.44
..LN1589:
	.loc    1  312  is_stmt 1
        movq      %r15, %r14                                    #312.44
..LN1590:
        shlq      $5, %r14                                      #312.44
..LN1591:
        vmovupd   q(%r14), %ymm2                                #312.44
..LN1592:
	.loc    1  315  is_stmt 1
        movq      %r12, %r14                                    #315.44
..LN1593:
        shlq      $5, %r14                                      #315.44
..LN1594:
        vmovupd   q(%r14), %ymm15                               #315.44
..LN1595:
	.loc    1  316  is_stmt 1
        movq      %r10, %r14                                    #316.44
..LN1596:
        shlq      $5, %r14                                      #316.44
..LN1597:
        vmovupd   q(%r14), %ymm14                               #316.44
..LN1598:
	.loc    1  319  is_stmt 1
        movq      %r11, %r14                                    #319.44
..LN1599:
        shlq      $5, %r14                                      #319.44
..LN1600:
        vmovupd   q(%r14), %ymm12                               #319.44
..LN1601:
	.loc    1  320  is_stmt 1
        movq      %rax, %r14                                    #320.44
..LN1602:
        shlq      $5, %r14                                      #320.44
..LN1603:
        vmovupd   q(%r14), %ymm5                                #320.44
..LN1604:
	.loc    1  296  is_stmt 1
        vmovdqa   %ymm9, %ymm6                                  #296.5
..LN1605:
	.loc    1  321  is_stmt 1
        vsubpd    %ymm12, %ymm5, %ymm9                          #321.23
..LN1606:
	.loc    1  294  is_stmt 1
        vmovdqa   %ymm7, %ymm12                                 #294.5
..LN1607:
	.loc    1  313  is_stmt 1
        vsubpd    %ymm0, %ymm2, %ymm7                           #313.23
..LN1608:
	.loc    1  323  is_stmt 1
        vmulpd    %ymm4, %ymm4, %ymm0                           #323.28
..LN1609:
	.loc    1  295  is_stmt 1
        vmovdqa   %ymm8, %ymm5                                  #295.5
..LN1610:
	.loc    1  293  is_stmt 1
        vmovdqa   %ymm4, %ymm13                                 #293.5
..LN1611:
	.loc    1  317  is_stmt 1
        vsubpd    %ymm15, %ymm14, %ymm8                         #317.23
..LN1612:
	.loc    1  323  is_stmt 1
        vmovdqa   %ymm4, %ymm14                                 #323.28
..LN1613:
	.loc    1  309  is_stmt 1
        vsubpd    %ymm3, %ymm1, %ymm4                           #309.23
..LN1614:
	.loc    1  324  is_stmt 1
        vpermpd   $201, %ymm0, %ymm3                            #324.19
..LN1615:
	.loc    1  325  is_stmt 1
        vpermpd   $210, %ymm0, %ymm1                            #325.19
..LN1616:
	.loc    1  328  is_stmt 1
        vmulpd    %ymm12, %ymm12, %ymm15                        #328.28
..LN1617:
	.loc    1  326  is_stmt 1
        vfmadd213pd %ymm3, %ymm14, %ymm14                       #326.28
..LN1618:
        vaddpd    %ymm1, %ymm14, %ymm2                          #326.37
..LN1619:
	.loc    1  329  is_stmt 1
        vpermpd   $201, %ymm15, %ymm14                          #329.19
..LN1620:
	.loc    1  330  is_stmt 1
        vpermpd   $210, %ymm15, %ymm3                           #330.19
..LN1621:
	.loc    1  333  is_stmt 1
        vmulpd    %ymm5, %ymm5, %ymm1                           #333.28
..LN1622:
	.loc    1  331  is_stmt 1
        vfmadd231pd %ymm12, %ymm12, %ymm14                      #331.28
..LN1623:
	.loc    1  334  is_stmt 1
        vpermpd   $201, %ymm1, %ymm0                            #334.19
..LN1624:
	.loc    1  331  is_stmt 1
        vaddpd    %ymm3, %ymm14, %ymm15                         #331.37
..LN1625:
	.loc    1  335  is_stmt 1
        vpermpd   $210, %ymm1, %ymm14                           #335.19
..LN1626:
	.loc    1  336  is_stmt 1
        vfmadd231pd %ymm5, %ymm5, %ymm0                         #336.28
..LN1627:
	.loc    1  338  is_stmt 1
        vmulpd    %ymm6, %ymm6, %ymm3                           #338.28
..LN1628:
	.loc    1  336  is_stmt 1
        vaddpd    %ymm14, %ymm0, %ymm1                          #336.37
..LN1629:
	.loc    1  339  is_stmt 1
        vpermpd   $201, %ymm3, %ymm0                            #339.19
..LN1630:
	.loc    1  340  is_stmt 1
        vpermpd   $210, %ymm3, %ymm14                           #340.19
..LN1631:
	.loc    1  341  is_stmt 1
        vfmadd231pd %ymm6, %ymm6, %ymm0                         #341.28
..LN1632:
	.loc    1  343  is_stmt 1
        vunpcklpd %ymm1, %ymm2, %ymm3                           #343.19
..LN1633:
	.loc    1  341  is_stmt 1
        vaddpd    %ymm14, %ymm0, %ymm2                          #341.37
..LN1634:
	.loc    1  344  is_stmt 1
        vunpcklpd %ymm2, %ymm15, %ymm14                         #344.19
..LN1635:
	.loc    1  345  is_stmt 1
        vshufpd   $12, %ymm14, %ymm3, %ymm14                    #345.16
..LN1636:
	.loc    1  346  is_stmt 1
        vmulpd    %ymm14, %ymm14, %ymm1                         #346.22
..LN1637:
	.loc    1  347  is_stmt 1
        vmovupd   .L_2il0floatpacket.42(%rip), %ymm3            #347.30
..LN1638:
	.loc    1  346  is_stmt 1
        vmulpd    %ymm1, %ymm14, %ymm15                         #346.28
..LN1639:
	.loc    1  347  is_stmt 1
        vmulpd    %ymm15, %ymm15, %ymm0                         #347.45
..LN1640:
        vfmsub213pd %ymm10, %ymm15, %ymm3                       #347.30
..LN1641:
        vmulpd    %ymm0, %ymm14, %ymm2                          #347.51
..LN1642:
        vdivpd    %ymm2, %ymm3, %ymm1                           #347.51
..LN1643:
	.loc    1  349  is_stmt 1
        vmovupd   .L_2il0floatpacket.41(%rip), %ymm3            #349.24
..LN1644:
        vsubpd    %ymm14, %ymm3, %ymm14                         #349.24
..LN1645:
	.loc    1  350  is_stmt 1
        vblendvpd %ymm14, %ymm11, %ymm1, %ymm0                  #350.11
..LN1646:
	.loc    1  352  is_stmt 1
        vpermpd   $0, %ymm0, %ymm15                             #352.18
..LN1647:
	.loc    1  353  is_stmt 1
        vpermpd   $85, %ymm0, %ymm1                             #353.18
..LN1648:
	.loc    1  354  is_stmt 1
        vpermpd   $170, %ymm0, %ymm3                            #354.18
..LN1649:
	.loc    1  357  is_stmt 1
        shlq      $5, %rdi                                      #357.43
..LN1650:
	.loc    1  355  is_stmt 1
        vpermpd   $255, %ymm0, %ymm14                           #355.18
..LN1651:
	.loc    1  357  is_stmt 1
        vmovupd   p(%rdi), %ymm2                                #357.43
..LN1652:
	.loc    1  358  is_stmt 1
        vfmadd231pd %ymm13, %ymm15, %ymm2                       #358.5
..LN1653:
	.loc    1  359  is_stmt 1
        vmovupd   %ymm2, p(%rdi)                                #359.31
..LN1654:
	.loc    1  360  is_stmt 1
        shlq      $5, %r8                                       #360.43
..LN1655:
        vmovupd   p(%r8), %ymm0                                 #360.43
..LN1656:
	.loc    1  361  is_stmt 1
        vfnmadd213pd %ymm0, %ymm15, %ymm13                      #361.5
..LN1657:
	.loc    1  362  is_stmt 1
        vmovupd   %ymm13, p(%r8)                                #362.31
..LN1658:
	.loc    1  364  is_stmt 1
        shlq      $5, %rcx                                      #364.43
..LN1659:
        vmovupd   p(%rcx), %ymm13                               #364.43
..LN1660:
	.loc    1  365  is_stmt 1
        vfmadd231pd %ymm12, %ymm1, %ymm13                       #365.5
..LN1661:
	.loc    1  366  is_stmt 1
        vmovupd   %ymm13, p(%rcx)                               #366.31
..LN1662:
	.loc    1  367  is_stmt 1
        shlq      $5, %rbx                                      #367.43
..LN1663:
        .byte     15                                            #367.43
..LN1664:
        .byte     31                                            #367.43
..LN1665:
        .byte     0                                             #367.43
..LN1666:
        vmovupd   p(%rbx), %ymm0                                #367.43
..LN1667:
	.loc    1  368  is_stmt 1
        vfnmadd213pd %ymm0, %ymm1, %ymm12                       #368.5
..LN1668:
	.loc    1  369  is_stmt 1
        vmovupd   %ymm12, p(%rbx)                               #369.31
..LN1669:
	.loc    1  371  is_stmt 1
        shlq      $5, %rsi                                      #371.43
..LN1670:
        vmovupd   p(%rsi), %ymm1                                #371.43
..LN1671:
	.loc    1  372  is_stmt 1
        vfmadd231pd %ymm5, %ymm3, %ymm1                         #372.5
..LN1672:
	.loc    1  373  is_stmt 1
        vmovupd   %ymm1, p(%rsi)                                #373.31
..LN1673:
	.loc    1  374  is_stmt 1
        shlq      $5, %rdx                                      #374.43
..LN1674:
        vmovupd   p(%rdx), %ymm2                                #374.43
..LN1675:
	.loc    1  375  is_stmt 1
        vfnmadd213pd %ymm2, %ymm3, %ymm5                        #375.5
..LN1676:
	.loc    1  376  is_stmt 1
        vmovupd   %ymm5, p(%rdx)                                #376.31
..LN1677:
	.loc    1  378  is_stmt 1
        movq      -32(%rsp), %rdx                               #378.43
..LN1678:
        shlq      $5, %rdx                                      #378.43
..LN1679:
        vmovupd   p(%rdx), %ymm3                                #378.43
..LN1680:
	.loc    1  379  is_stmt 1
        vfmadd231pd %ymm6, %ymm14, %ymm3                        #379.5
..LN1681:
	.loc    1  380  is_stmt 1
        vmovupd   %ymm3, p(%rdx)                                #380.31
..LN1682:
	.loc    1  381  is_stmt 1
        movq      -24(%rsp), %rcx                               #381.43
..LN1683:
        shlq      $5, %rcx                                      #381.43
..LN1684:
        vmovupd   p(%rcx), %ymm5                                #381.43
..LN1685:
	.loc    1  386  is_stmt 1
        movq      %r13, %r8                                     #386.5
..LN1686:
	.loc    1  382  is_stmt 1
        vfnmadd213pd %ymm5, %ymm14, %ymm6                       #382.5
..LN1687:
	.loc    1  391  is_stmt 1
        movq      %r11, %r13                                    #391.5
..LN1688:
	.loc    1  383  is_stmt 1
        vmovupd   %ymm6, p(%rcx)                                #383.31
..LN1689:
	.loc    1  387  is_stmt 1
        movq      %r9, %rcx                                     #387.5
..LN1690:
	.loc    1  292  is_stmt 1
        movq      -16(%rsp), %r9                                #292.3
..LN1691:
	.loc    1  392  is_stmt 1
        movq      %rax, %r11                                    #392.5
..LN1692:
	.loc    1  292  is_stmt 1
        incq      %r9                                           #292.3
..LN1693:
	.loc    1  388  is_stmt 1
        movq      %r15, %rbx                                    #388.5
..LN1694:
	.loc    1  292  is_stmt 1
        movq      -40(%rsp), %rax                               #292.3
..LN1695:
	.loc    1  389  is_stmt 1
        movq      %r12, %rsi                                    #389.5
..LN1696:
	.loc    1  292  is_stmt 1
        addq      $16, %rax                                     #292.3
..LN1697:
	.loc    1  390  is_stmt 1
        movq      %r10, %rdx                                    #390.5
..LN1698:
	.loc    1  385  is_stmt 1
        movq      -8(%rsp), %rdi                                #385.5
..LN1699:
	.loc    1  292  is_stmt 1
        cmpq      -48(%rsp), %r9                                #292.3
..LN1700:
        jb        ..B5.3        # Prob 99%                      #292.3
..LN1701:
                                # LOE rax rdx rcx rbx rbp rsi rdi r8 r9 r11 r13 ymm4 ymm7 ymm8 ymm9 ymm10 ymm11
..B5.4:                         # Preds ..B5.3
..LN1702:
        movl      -56(%rsp), %r10d                              #
..LN1703:
        movl      -64(%rsp), %r14d                              #
..LN1704:
                                # LOE rbp r12 r10d r14d
..B5.5:                         # Preds ..B5.4 ..B5.1
..LN1705:
	.loc    1  394  is_stmt 1
        xorl      %ecx, %ecx                                    #394.3
..LN1706:
        lea       -4(,%r10,4), %eax                             #394.40
..LN1707:
        cmpl      %eax, %r14d                                   #394.47
..LN1708:
        jle       ..B5.11       # Prob 10%                      #394.47
..LN1709:
                                # LOE rcx rbp r12 r10d r14d
..B5.6:                         # Preds ..B5.5
..LN1710:
	.loc    1  396  is_stmt 1
        movslq    %r10d, %r10                                   #396.19
..LN1711:
        movq      %r10, %rdx                                    #396.19
..LN1712:
	.loc    1  292  is_stmt 1
        shlq      $2, %r10                                      #292.19
..LN1713:
	.loc    1  394  is_stmt 1
        movslq    %r14d, %r14                                   #394.3
..LN1714:
	.loc    1  292  is_stmt 1
        negq      %r10                                          #292.19
..LN1715:
	.loc    1  396  is_stmt 1
        shlq      $4, %rdx                                      #396.19
..LN1716:
	.loc    1  401  is_stmt 1
        vmovsd    .L_2il0floatpacket.37(%rip), %xmm5            #401.14
..LN1717:
	.loc    1  403  is_stmt 1
        vmovsd    .L_2il0floatpacket.38(%rip), %xmm4            #403.57
..LN1718:
        vmovsd    .L_2il0floatpacket.39(%rip), %xmm3            #403.19
..LN1719:
	.loc    1  292  is_stmt 1
        lea       4(%r14,%r10), %rax                            #292.19
..LN1720:
                                # LOE rax rdx rcx rbp r12 xmm3 xmm4 xmm5
..B5.7:                         # Preds ..B5.9 ..B5.6
..L386:         # optimization report
                # PEELED LOOP
                # LOOP STMTS WERE REORDERED
                # %s was not vectorized: vector dependence prevents vectorization%s
                # VECTOR TRIP COUNT IS ESTIMATED CONSTANT
..LN1721:
	.loc    1  396  is_stmt 1
        movslq    -16+j_particles(%rdx,%rcx,4), %rsi            #396.19
..LN1722:
	.loc    1  399  is_stmt 1
        shlq      $5, %rsi                                      #399.17
..LN1723:
	.loc    1  395  is_stmt 1
        movslq    -16+i_particles(%rdx,%rcx,4), %rbx            #395.19
..LN1724:
	.loc    1  399  is_stmt 1
        shlq      $5, %rbx                                      #399.27
..LN1725:
	.loc    1  398  is_stmt 1
        vmovsd    8+q(%rsi), %xmm1                              #398.17
..LN1726:
	.loc    1  397  is_stmt 1
        vmovsd    q(%rsi), %xmm0                                #397.17
..LN1727:
	.loc    1  399  is_stmt 1
        vmovsd    16+q(%rsi), %xmm2                             #399.17
..LN1728:
	.loc    1  398  is_stmt 1
        vsubsd    8+q(%rbx), %xmm1, %xmm1                       #398.27
..LN1729:
	.loc    1  397  is_stmt 1
        vsubsd    q(%rbx), %xmm0, %xmm0                         #397.27
..LN1730:
	.loc    1  399  is_stmt 1
        vsubsd    16+q(%rbx), %xmm2, %xmm2                      #399.27
..LN1731:
	.loc    1  400  is_stmt 1
        vmulsd    %xmm1, %xmm1, %xmm7                           #400.33
..LN1732:
        vfmadd231sd %xmm0, %xmm0, %xmm7                         #400.43
..LN1733:
        vfmadd231sd %xmm2, %xmm2, %xmm7                         #400.43
..LN1734:
	.loc    1  401  is_stmt 1
        vcomisd   %xmm5, %xmm7                                  #401.14
..LN1735:
        ja        ..B5.9        # Prob 50%                      #401.14
..LN1736:
                                # LOE rax rdx rcx rbx rbp rsi r12 xmm0 xmm1 xmm2 xmm3 xmm4 xmm5 xmm7
..B5.8:                         # Preds ..B5.7
..LN1737:
	.loc    1  402  is_stmt 1
        vmulsd    %xmm7, %xmm7, %xmm6                           #402.22
..LN1738:
        vmulsd    %xmm7, %xmm6, %xmm8                           #402.27
..LN1739:
	.loc    1  403  is_stmt 1
        vmulsd    %xmm8, %xmm7, %xmm7                           #403.45
..LN1740:
        vmovsd    .L_2il0floatpacket.40(%rip), %xmm9            #403.57
..LN1741:
        vfmsub231sd %xmm8, %xmm3, %xmm9                         #403.57
..LN1742:
        vmulsd    %xmm8, %xmm7, %xmm10                          #403.50
..LN1743:
        vdivsd    %xmm10, %xmm9, %xmm11                         #403.50
..LN1744:
        vmulsd    %xmm11, %xmm4, %xmm6                          #403.57
..LN1745:
	.loc    1  404  is_stmt 1
        vmovsd    p(%rbx), %xmm12                               #404.5
..LN1746:
	.loc    1  405  is_stmt 1
        vmovsd    8+p(%rbx), %xmm13                             #405.5
..LN1747:
	.loc    1  406  is_stmt 1
        vmovsd    16+p(%rbx), %xmm14                            #406.5
..LN1748:
	.loc    1  404  is_stmt 1
        vfmadd231sd %xmm0, %xmm6, %xmm12                        #404.5
..LN1749:
	.loc    1  405  is_stmt 1
        vfmadd231sd %xmm6, %xmm1, %xmm13                        #405.5
..LN1750:
	.loc    1  406  is_stmt 1
        vfmadd231sd %xmm6, %xmm2, %xmm14                        #406.5
..LN1751:
	.loc    1  404  is_stmt 1
        vmovsd    %xmm12, p(%rbx)                               #404.5
..LN1752:
	.loc    1  405  is_stmt 1
        vmovsd    %xmm13, 8+p(%rbx)                             #405.5
..LN1753:
	.loc    1  406  is_stmt 1
        vmovsd    %xmm14, 16+p(%rbx)                            #406.5
..LN1754:
	.loc    1  407  is_stmt 1
        vmovsd    p(%rsi), %xmm15                               #407.5
..LN1755:
        vfnmadd213sd %xmm15, %xmm6, %xmm0                       #407.5
..LN1756:
        vmovsd    %xmm0, p(%rsi)                                #407.5
..LN1757:
	.loc    1  408  is_stmt 1
        vmovsd    8+p(%rsi), %xmm0                              #408.5
..LN1758:
        vfnmadd231sd %xmm6, %xmm1, %xmm0                        #408.5
..LN1759:
	.loc    1  409  is_stmt 1
        vmovsd    16+p(%rsi), %xmm1                             #409.5
..LN1760:
        vfnmadd213sd %xmm1, %xmm2, %xmm6                        #409.5
..LN1761:
	.loc    1  408  is_stmt 1
        vmovsd    %xmm0, 8+p(%rsi)                              #408.5
..LN1762:
	.loc    1  409  is_stmt 1
        vmovsd    %xmm6, 16+p(%rsi)                             #409.5
..LN1763:
                                # LOE rax rdx rcx rbp r12 xmm3 xmm4 xmm5
..B5.9:                         # Preds ..B5.7 ..B5.8
..LN1764:
	.loc    1  394  is_stmt 1
        incq      %rcx                                          #394.3
..LN1765:
        cmpq      %rax, %rcx                                    #394.3
..LN1766:
        jb        ..B5.7        # Prob 99%                      #394.3
..LN1767:
                                # LOE rax rdx rcx rbp r12 xmm3 xmm4 xmm5
..B5.11:                        # Preds ..B5.9 ..B5.5
..LN1768:
	.loc    1  411  is_stmt 1
        vzeroupper                                              #411.1
	.cfi_restore 3
..LN1769:
	.loc    1  411  epilogue_begin  is_stmt 1
        popq      %rbx                                          #411.1
	.cfi_def_cfa_offset 40
	.cfi_restore 15
..LN1770:
        popq      %r15                                          #411.1
	.cfi_def_cfa_offset 32
	.cfi_restore 14
..LN1771:
        popq      %r14                                          #411.1
	.cfi_def_cfa_offset 24
	.cfi_restore 13
..LN1772:
        popq      %r13                                          #411.1
	.cfi_def_cfa_offset 16
	.cfi_restore 12
..LN1773:
        popq      %r12                                          #411.1
	.cfi_def_cfa_offset 8
..LN1774:
        ret                                                     #411.1
        .align    16,0x90
..LN1775:
                                # LOE
..LN1776:
	.cfi_endproc
# mark_end;
	.type	force_pair_swp_intrin(),@function
	.size	force_pair_swp_intrin(),.-force_pair_swp_intrin()
..LN_Z21force_pair_swp_intrinv.1777:
.LN_Z21force_pair_swp_intrinv:
	.data
# -- End  force_pair_swp_intrin()
	.text
.L_2__routine_start__Z12force_sortedv_5:
# -- Begin  force_sorted()
	.text
# mark_begin;
       .align    16,0x90
	.globl force_sorted()
# --- force_sorted()
force_sorted():
..B6.1:                         # Preds ..B6.0
	.cfi_startproc
	.cfi_personality 0x3,__gxx_personality_v0
..___tag_value__Z12force_sortedv.401:
..L402:
                                                        #414.20
..LN1778:
	.loc    1  414  prologue_end  is_stmt 1
..LN1779:
	.loc    1  416  is_stmt 1
        xorl      %edx, %edx                                    #416.3
..LN1780:
	.loc    1  415  is_stmt 1
        movslq    particle_number(%rip), %rcx                   #415.18
..LN1781:
	.loc    1  416  is_stmt 1
        xorl      %eax, %eax                                    #416.3
..LN1782:
        testq     %rcx, %rcx                                    #416.23
..LN1783:
        jle       ..B6.11       # Prob 10%                      #416.23
..LN1784:
                                # LOE rax rdx rcx rbx rbp r12 r13 r14 r15
..B6.2:                         # Preds ..B6.1
..LN1785:
	.loc    1  431  is_stmt 1
        vmovsd    .L_2il0floatpacket.37(%rip), %xmm11           #431.16
..LN1786:
	.loc    1  433  is_stmt 1
        vmovsd    .L_2il0floatpacket.38(%rip), %xmm12           #433.59
..LN1787:
        vmovsd    .L_2il0floatpacket.39(%rip), %xmm13           #433.21
..LN1788:
        vmovsd    .L_2il0floatpacket.40(%rip), %xmm10           #433.33
..LN1789:
                                # LOE rax rdx rcx rbx rbp r12 r13 r14 r15 xmm10 xmm11 xmm12 xmm13
..B6.3:                         # Preds ..B6.9 ..B6.2
..L404:         # optimization report
                # %s was not vectorized: vector dependence prevents vectorization%s
                # VECTOR TRIP COUNT IS ESTIMATED CONSTANT
..LN1790:
	.loc    1  425  is_stmt 1
        xorl      %edi, %edi                                    #425.5
..LN1791:
	.loc    1  420  is_stmt 1
        movslq    number_of_partners(,%rdx,4), %r8              #420.20
..LN1792:
	.loc    1  421  is_stmt 1
        vxorpd    %xmm5, %xmm5, %xmm5                           #421.16
..LN1793:
	.loc    1  417  is_stmt 1
        vmovsd    q(%rax), %xmm8                                #417.27
..LN1794:
	.loc    1  422  is_stmt 1
        vxorpd    %xmm9, %xmm9, %xmm9                           #422.16
..LN1795:
	.loc    1  418  is_stmt 1
        vmovsd    8+q(%rax), %xmm7                              #418.27
..LN1796:
	.loc    1  423  is_stmt 1
        vxorpd    %xmm14, %xmm14, %xmm14                        #423.16
..LN1797:
	.loc    1  419  is_stmt 1
        vmovsd    16+q(%rax), %xmm6                             #419.27
..LN1798:
	.loc    1  425  is_stmt 1
        testq     %r8, %r8                                      #425.25
..LN1799:
	.loc    1  424  is_stmt 1
        movslq    pointer(,%rdx,4), %rsi                        #424.20
..LN1800:
	.loc    1  425  is_stmt 1
        jle       ..B6.9        # Prob 10%                      #425.25
..LN1801:
                                # LOE rax rdx rcx rbx rbp rsi rdi r8 r12 r13 r14 r15 xmm5 xmm6 xmm7 xmm8 xmm9 xmm10 xmm11 xmm12 xmm13 xmm14
..B6.4:                         # Preds ..B6.3
..LN1802:
	.loc    1  426  is_stmt 1
        shlq      $2, %rsi                                      #426.21
..LN1803:
                                # LOE rax rdx rcx rbx rbp rsi rdi r8 r12 r13 r14 r15 xmm5 xmm6 xmm7 xmm8 xmm9 xmm10 xmm11 xmm12 xmm13 xmm14
..B6.5:                         # Preds ..B6.7 ..B6.4
..L405:         # optimization report
                # PEELED LOOP
                # LOOP STMTS WERE REORDERED
                # %s was not vectorized: vector dependence prevents vectorization%s
                # VECTOR TRIP COUNT IS ESTIMATED CONSTANT
..LN1804:
        movslq    sorted_list(%rsi,%rdi,4), %r9                 #426.21
..LN1805:
	.loc    1  429  is_stmt 1
        shlq      $5, %r9                                       #429.19
..LN1806:
	.loc    1  428  is_stmt 1
        vmovsd    8+q(%r9), %xmm3                               #428.19
..LN1807:
	.loc    1  427  is_stmt 1
        vmovsd    q(%r9), %xmm0                                 #427.19
..LN1808:
	.loc    1  428  is_stmt 1
        vsubsd    %xmm7, %xmm3, %xmm3                           #428.29
..LN1809:
	.loc    1  427  is_stmt 1
        vsubsd    %xmm8, %xmm0, %xmm2                           #427.29
..LN1810:
	.loc    1  430  is_stmt 1
        vmulsd    %xmm3, %xmm3, %xmm0                           #430.35
..LN1811:
	.loc    1  429  is_stmt 1
        vmovsd    16+q(%r9), %xmm4                              #429.19
..LN1812:
	.loc    1  430  is_stmt 1
        vfmadd231sd %xmm2, %xmm2, %xmm0                         #430.45
..LN1813:
	.loc    1  429  is_stmt 1
        vsubsd    %xmm6, %xmm4, %xmm4                           #429.29
..LN1814:
	.loc    1  430  is_stmt 1
        vfmadd231sd %xmm4, %xmm4, %xmm0                         #430.45
..LN1815:
	.loc    1  431  is_stmt 1
        vcomisd   %xmm11, %xmm0                                 #431.16
..LN1816:
        ja        ..B6.7        # Prob 50%                      #431.16
..LN1817:
                                # LOE rax rdx rcx rbx rbp rsi rdi r8 r9 r12 r13 r14 r15 xmm0 xmm2 xmm3 xmm4 xmm5 xmm6 xmm7 xmm8 xmm9 xmm10 xmm11 xmm12 xmm13 xmm14
..B6.6:                         # Preds ..B6.5
..LN1818:
	.loc    1  432  is_stmt 1
        vmulsd    %xmm0, %xmm0, %xmm15                          #432.24
..LN1819:
        vmulsd    %xmm0, %xmm15, %xmm1                          #432.29
..LN1820:
	.loc    1  433  is_stmt 1
        vmulsd    %xmm1, %xmm0, %xmm0                           #433.47
..LN1821:
        vmulsd    %xmm1, %xmm0, %xmm15                          #433.52
..LN1822:
        vfmsub213sd %xmm10, %xmm13, %xmm1                       #433.59
..LN1823:
        vdivsd    %xmm15, %xmm1, %xmm1                          #433.52
..LN1824:
        vmulsd    %xmm1, %xmm12, %xmm0                          #433.59
..LN1825:
	.loc    1  437  is_stmt 1
        vmovsd    p(%r9), %xmm1                                 #437.7
..LN1826:
	.loc    1  434  is_stmt 1
        vfmadd231sd %xmm2, %xmm0, %xmm5                         #434.7
..LN1827:
	.loc    1  437  is_stmt 1
        vfnmadd213sd %xmm1, %xmm0, %xmm2                        #437.7
..LN1828:
	.loc    1  435  is_stmt 1
        vfmadd231sd %xmm0, %xmm3, %xmm9                         #435.7
..LN1829:
	.loc    1  436  is_stmt 1
        vfmadd231sd %xmm0, %xmm4, %xmm14                        #436.7
..LN1830:
	.loc    1  437  is_stmt 1
        vmovsd    %xmm2, p(%r9)                                 #437.7
..LN1831:
	.loc    1  438  is_stmt 1
        vmovsd    8+p(%r9), %xmm2                               #438.7
..LN1832:
        vfnmadd231sd %xmm0, %xmm3, %xmm2                        #438.7
..LN1833:
	.loc    1  439  is_stmt 1
        vmovsd    16+p(%r9), %xmm3                              #439.7
..LN1834:
        vfnmadd213sd %xmm3, %xmm4, %xmm0                        #439.7
..LN1835:
	.loc    1  438  is_stmt 1
        vmovsd    %xmm2, 8+p(%r9)                               #438.7
..LN1836:
	.loc    1  439  is_stmt 1
        vmovsd    %xmm0, 16+p(%r9)                              #439.7
..LN1837:
                                # LOE rax rdx rcx rbx rbp rsi rdi r8 r12 r13 r14 r15 xmm5 xmm6 xmm7 xmm8 xmm9 xmm10 xmm11 xmm12 xmm13 xmm14
..B6.7:                         # Preds ..B6.6 ..B6.5
..LN1838:
	.loc    1  425  is_stmt 1
        incq      %rdi                                          #425.5
..LN1839:
        cmpq      %r8, %rdi                                     #425.5
..LN1840:
        jb        ..B6.5        # Prob 99%                      #425.5
..LN1841:
                                # LOE rax rdx rcx rbx rbp rsi rdi r8 r12 r13 r14 r15 xmm5 xmm6 xmm7 xmm8 xmm9 xmm10 xmm11 xmm12 xmm13 xmm14
..B6.9:                         # Preds ..B6.7 ..B6.3
..LN1842:
	.loc    1  416  is_stmt 1
        incq      %rdx                                          #416.3
..LN1843:
	.loc    1  441  is_stmt 1
        vaddsd    p(%rax), %xmm5, %xmm0                         #441.5
..LN1844:
	.loc    1  442  is_stmt 1
        vaddsd    8+p(%rax), %xmm9, %xmm1                       #442.5
..LN1845:
	.loc    1  443  is_stmt 1
        vaddsd    16+p(%rax), %xmm14, %xmm2                     #443.5
..LN1846:
	.loc    1  441  is_stmt 1
        vmovsd    %xmm0, p(%rax)                                #441.5
..LN1847:
	.loc    1  442  is_stmt 1
        vmovsd    %xmm1, 8+p(%rax)                              #442.5
..LN1848:
	.loc    1  443  is_stmt 1
        vmovsd    %xmm2, 16+p(%rax)                             #443.5
..LN1849:
	.loc    1  416  is_stmt 1
        addq      $32, %rax                                     #416.3
..LN1850:
        cmpq      %rcx, %rdx                                    #416.3
..LN1851:
        jb        ..B6.3        # Prob 16%                      #416.3
..LN1852:
                                # LOE rax rdx rcx rbx rbp r12 r13 r14 r15 xmm10 xmm11 xmm12 xmm13
..B6.11:                        # Preds ..B6.9 ..B6.1
..LN1853:
	.loc    1  445  epilogue_begin  is_stmt 1
        ret                                                     #445.1
        .align    16,0x90
..LN1854:
                                # LOE
..LN1855:
	.cfi_endproc
# mark_end;
	.type	force_sorted(),@function
	.size	force_sorted(),.-force_sorted()
..LN_Z12force_sortedv.1856:
.LN_Z12force_sortedv:
	.data
# -- End  force_sorted()
	.text
.L_2__routine_start__Z16force_sorted_swpv_6:
# -- Begin  force_sorted_swp()
	.text
# mark_begin;
       .align    16,0x90
	.globl force_sorted_swp()
# --- force_sorted_swp()
force_sorted_swp():
..B7.1:                         # Preds ..B7.0
	.cfi_startproc
	.cfi_personality 0x3,__gxx_personality_v0
..___tag_value__Z16force_sorted_swpv.410:
..L411:
                                                        #448.24
..LN1857:
	.loc    1  448  prologue_end  is_stmt 1
..LN1858:
	.loc    1  450  is_stmt 1
        xorl      %r11d, %r11d                                  #450.14
..LN1859:
	.loc    1  449  is_stmt 1
        movslq    particle_number(%rip), %r10                   #449.18
..LN1860:
	.loc    1  450  is_stmt 1
        xorl      %r9d, %r9d                                    #450.14
..LN1861:
        testq     %r10, %r10                                    #450.23
..LN1862:
        jle       ..B7.11       # Prob 10%                      #450.23
..LN1863:
                                # LOE rbx rbp r9 r10 r11 r12 r13 r14 r15
..B7.2:                         # Preds ..B7.1
..LN1864:
	.loc    1  485  is_stmt 1
        vmovsd    .L_2il0floatpacket.38(%rip), %xmm14           #485.52
..LN1865:
        vmovsd    .L_2il0floatpacket.39(%rip), %xmm15           #485.14
..LN1866:
        vmovsd    .L_2il0floatpacket.40(%rip), %xmm13           #485.26
..LN1867:
                                # LOE rbx rbp r9 r10 r11 r12 r13 r14 r15 xmm13 xmm14 xmm15
..B7.3:                         # Preds ..B7.9 ..B7.2
..L413:         # optimization report
                # %s was not vectorized: vector dependence prevents vectorization%s
                # VECTOR TRIP COUNT IS ESTIMATED CONSTANT
..LN1868:
	.loc    1  464  is_stmt 1
        xorl      %esi, %esi                                    #464.12
..LN1869:
	.loc    1  457  is_stmt 1
        movl      pointer(,%r11,4), %r8d                        #457.20
..LN1870:
	.loc    1  454  is_stmt 1
        vxorpd    %xmm2, %xmm2, %xmm2                           #454.16
..LN1871:
	.loc    1  458  is_stmt 1
        movslq    %r8d, %r8                                     #458.14
..LN1872:
	.loc    1  455  is_stmt 1
        vxorpd    %xmm3, %xmm3, %xmm3                           #455.16
..LN1873:
	.loc    1  453  is_stmt 1
        vmovsd    16+q(%r9), %xmm11                             #453.27
..LN1874:
	.loc    1  456  is_stmt 1
        vxorpd    %xmm4, %xmm4, %xmm4                           #456.16
..LN1875:
	.loc    1  451  is_stmt 1
        vmovsd    q(%r9), %xmm12                                #451.27
..LN1876:
	.loc    1  462  is_stmt 1
        vxorpd    %xmm8, %xmm8, %xmm8                           #462.15
..LN1877:
	.loc    1  452  is_stmt 1
        vmovsd    8+q(%r9), %xmm1                               #452.27
..LN1878:
	.loc    1  463  is_stmt 1
        vxorpd    %xmm9, %xmm9, %xmm9                           #463.16
..LN1879:
	.loc    1  458  is_stmt 1
        movslq    sorted_list(,%r8,4), %rdi                     #458.14
..LN1880:
	.loc    1  459  is_stmt 1
        movq      %rdi, %rcx                                    #459.18
..LN1881:
        shlq      $5, %rcx                                      #459.18
..LN1882:
	.loc    1  473  is_stmt 1
        lea       4(,%r8,4), %rdx                               #473.12
..LN1883:
	.loc    1  463  is_stmt 1
        vxorpd    %xmm10, %xmm10, %xmm10                        #463.27
..LN1884:
	.loc    1  461  is_stmt 1
        vmovsd    16+q(%rcx), %xmm0                             #461.18
..LN1885:
	.loc    1  459  is_stmt 1
        vmovsd    q(%rcx), %xmm5                                #459.18
..LN1886:
	.loc    1  461  is_stmt 1
        vsubsd    %xmm11, %xmm0, %xmm7                          #461.29
..LN1887:
	.loc    1  459  is_stmt 1
        vsubsd    %xmm12, %xmm5, %xmm5                          #459.29
..LN1888:
	.loc    1  460  is_stmt 1
        vmovsd    8+q(%rcx), %xmm6                              #460.18
..LN1889:
	.loc    1  463  is_stmt 1
        vxorpd    %xmm0, %xmm0, %xmm0                           #463.38
..LN1890:
	.loc    1  466  is_stmt 1
        movl      number_of_partners(,%r11,4), %ecx             #466.20
..LN1891:
	.loc    1  467  is_stmt 1
        testl     %ecx, %ecx                                    #467.31
..LN1892:
	.loc    1  460  is_stmt 1
        vsubsd    %xmm1, %xmm6, %xmm6                           #460.29
..LN1893:
	.loc    1  467  is_stmt 1
        jle       ..B7.9        # Prob 10%                      #467.31
..LN1894:
                                # LOE rdx rbx rbp rsi rdi r9 r10 r11 r12 r13 r14 r15 ecx r8d xmm0 xmm1 xmm2 xmm3 xmm4 xmm5 xmm6 xmm7 xmm8 xmm9 xmm10 xmm11 xmm12 xmm13 xmm14 xmm15
..B7.4:                         # Preds ..B7.3
..LN1895:
        vmovsd    %xmm11, -8(%rsp)                              #467.31
..LN1896:
        addl      %r8d, %ecx                                    #467.31
..LN1897:
        vmovsd    %xmm12, -16(%rsp)                             #467.31
..LN1898:
        movq      %r12, -24(%rsp)                               #467.31
	.cfi_offset 12, -32
..LN1899:
                                # LOE rdx rbx rbp rsi rdi r9 r10 r11 r13 r14 r15 ecx r8d xmm0 xmm1 xmm2 xmm3 xmm4 xmm5 xmm6 xmm7 xmm8 xmm9 xmm10
..B7.5:                         # Preds ..B7.7 ..B7.4
..L415:         # optimization report
                # %s was not vectorized: vector dependence prevents vectorization%s
                # VECTOR TRIP COUNT IS ESTIMATED CONSTANT
..LN1900:
	.loc    1  468  is_stmt 1
        vmovapd   %xmm5, %xmm14                                 #468.25
..LN1901:
	.loc    1  471  is_stmt 1
        vmulsd    %xmm6, %xmm6, %xmm11                          #471.35
..LN1902:
	.loc    1  472  is_stmt 1
        movl      %edi, %eax                                    #472.21
..LN1903:
	.loc    1  471  is_stmt 1
        vfmadd213sd %xmm11, %xmm5, %xmm5                        #471.45
..LN1904:
        vmovapd   %xmm7, %xmm11                                 #471.45
..LN1905:
	.loc    1  469  is_stmt 1
        vmovapd   %xmm6, %xmm13                                 #469.25
..LN1906:
	.loc    1  470  is_stmt 1
        vmovapd   %xmm7, %xmm12                                 #470.25
..LN1907:
	.loc    1  473  is_stmt 1
        movslq    sorted_list(%rdx), %rdi                       #473.12
..LN1908:
	.loc    1  474  is_stmt 1
        movq      %rdi, %r12                                    #474.13
..LN1909:
	.loc    1  471  is_stmt 1
        vfmadd213sd %xmm5, %xmm7, %xmm11                        #471.45
..LN1910:
	.loc    1  474  is_stmt 1
        shlq      $5, %r12                                      #474.13
..LN1911:
	.loc    1  477  is_stmt 1
        vcomisd   .L_2il0floatpacket.37(%rip), %xmm11           #477.16
..LN1912:
	.loc    1  474  is_stmt 1
        vmovsd    q(%r12), %xmm5                                #474.13
..LN1913:
	.loc    1  475  is_stmt 1
        vmovsd    8+q(%r12), %xmm6                              #475.13
..LN1914:
	.loc    1  476  is_stmt 1
        vmovsd    16+q(%r12), %xmm7                             #476.13
..LN1915:
	.loc    1  475  is_stmt 1
        vsubsd    %xmm1, %xmm6, %xmm6                           #475.24
..LN1916:
	.loc    1  474  is_stmt 1
        vsubsd    -16(%rsp), %xmm5, %xmm5                       #474.24
..LN1917:
	.loc    1  476  is_stmt 1
        vsubsd    -8(%rsp), %xmm7, %xmm7                        #476.24
..LN1918:
	.loc    1  477  is_stmt 1
        ja        ..B7.7        # Prob 50%                      #477.16
..LN1919:
                                # LOE rdx rbx rbp rsi rdi r9 r10 r11 r13 r14 r15 eax ecx r8d xmm0 xmm1 xmm2 xmm3 xmm4 xmm5 xmm6 xmm7 xmm8 xmm9 xmm10 xmm11 xmm12 xmm13 xmm14
..B7.6:                         # Preds ..B7.5
..LN1920:
	.loc    1  481  is_stmt 1
        movq      %rsi, %r12                                    #481.7
..LN1921:
        shlq      $5, %r12                                      #481.7
..LN1922:
	.loc    1  486  is_stmt 1
        movslq    %eax, %rsi                                    #486.7
..LN1923:
	.loc    1  478  is_stmt 1
        vfmadd231sd %xmm8, %xmm9, %xmm2                         #478.7
..LN1924:
	.loc    1  479  is_stmt 1
        vfmadd231sd %xmm8, %xmm10, %xmm3                        #479.7
..LN1925:
	.loc    1  481  is_stmt 1
        vmovsd    p(%r12), %xmm15                               #481.7
..LN1926:
        vfnmadd231sd %xmm8, %xmm9, %xmm15                       #481.7
..LN1927:
	.loc    1  487  is_stmt 1
        vmovapd   %xmm14, %xmm9                                 #487.7
..LN1928:
	.loc    1  482  is_stmt 1
        vmovsd    8+p(%r12), %xmm14                             #482.7
..LN1929:
	.loc    1  480  is_stmt 1
        vfmadd231sd %xmm8, %xmm0, %xmm4                         #480.7
..LN1930:
	.loc    1  482  is_stmt 1
        vfnmadd231sd %xmm8, %xmm10, %xmm14                      #482.7
..LN1931:
	.loc    1  488  is_stmt 1
        vmovapd   %xmm13, %xmm10                                #488.7
..LN1932:
	.loc    1  483  is_stmt 1
        vfnmadd213sd 16+p(%r12), %xmm0, %xmm8                   #483.7
..LN1933:
	.loc    1  489  is_stmt 1
        vmovapd   %xmm12, %xmm0                                 #489.7
..LN1934:
	.loc    1  485  is_stmt 1
        vmovsd    .L_2il0floatpacket.40(%rip), %xmm12           #485.7
..LN1935:
	.loc    1  481  is_stmt 1
        vmovsd    %xmm15, p(%r12)                               #481.7
..LN1936:
	.loc    1  482  is_stmt 1
        vmovsd    %xmm14, 8+p(%r12)                             #482.7
..LN1937:
	.loc    1  483  is_stmt 1
        vmovsd    %xmm8, 16+p(%r12)                             #483.7
..LN1938:
	.loc    1  484  is_stmt 1
        vmulsd    %xmm11, %xmm11, %xmm8                         #484.30
..LN1939:
        vmulsd    %xmm11, %xmm8, %xmm13                         #484.35
..LN1940:
	.loc    1  485  is_stmt 1
        vmulsd    %xmm13, %xmm11, %xmm11                        #485.40
..LN1941:
        vmulsd    %xmm13, %xmm11, %xmm8                         #485.45
..LN1942:
        vfmsub132sd .L_2il0floatpacket.39(%rip), %xmm12, %xmm13 #485.7
..LN1943:
        vdivsd    %xmm8, %xmm13, %xmm11                         #485.45
..LN1944:
        vmulsd    .L_2il0floatpacket.38(%rip), %xmm11, %xmm8    #485.52
..LN1945:
                                # LOE rdx rbx rbp rsi rdi r9 r10 r11 r13 r14 r15 ecx r8d xmm0 xmm1 xmm2 xmm3 xmm4 xmm5 xmm6 xmm7 xmm8 xmm9 xmm10
..B7.7:                         # Preds ..B7.6 ..B7.5
..LN1946:
	.loc    1  467  is_stmt 1
        incl      %r8d                                          #467.35
..LN1947:
        addq      $4, %rdx                                      #467.35
..LN1948:
        cmpl      %ecx, %r8d                                    #467.31
..LN1949:
        jl        ..B7.5        # Prob 99%                      #467.31
..LN1950:
                                # LOE rdx rbx rbp rsi rdi r9 r10 r11 r13 r14 r15 ecx r8d xmm0 xmm1 xmm2 xmm3 xmm4 xmm5 xmm6 xmm7 xmm8 xmm9 xmm10
..B7.8:                         # Preds ..B7.7
..LN1951:
        vmovsd    .L_2il0floatpacket.40(%rip), %xmm13           #
..LN1952:
        vmovsd    .L_2il0floatpacket.39(%rip), %xmm15           #
..LN1953:
        vmovsd    .L_2il0floatpacket.38(%rip), %xmm14           #
..LN1954:
        movq      -24(%rsp), %r12                               #
	.cfi_restore 12
..LN1955:
                                # LOE rbx rbp rsi r9 r10 r11 r12 r13 r14 r15 xmm0 xmm2 xmm3 xmm4 xmm8 xmm9 xmm10 xmm13 xmm14 xmm15
..B7.9:                         # Preds ..B7.8 ..B7.3
..LN1956:
	.loc    1  491  is_stmt 1
        shlq      $5, %rsi                                      #491.5
..LN1957:
	.loc    1  450  is_stmt 1
        incq      %r11                                          #450.27
..LN1958:
	.loc    1  491  is_stmt 1
        vmovsd    p(%rsi), %xmm1                                #491.5
..LN1959:
	.loc    1  492  is_stmt 1
        vmovsd    8+p(%rsi), %xmm5                              #492.5
